
kernel8.elf:     file format elf64-littleaarch64

Sections:
Idx Name          Size      VMA               LMA               File off  Algn
  0 .text         000016d0  0000000000080000  0000000000080000  00000080  2**3
                  CONTENTS, ALLOC, LOAD, READONLY, CODE
  1 .rodata       00000170  00000000000816d0  00000000000816d0  00001750  2**3
                  CONTENTS, ALLOC, LOAD, READONLY, DATA
  2 .data         00000308  0000000000081840  0000000000081840  000018c0  2**3
                  CONTENTS, ALLOC, LOAD, DATA
  3 .bss          000003dc  0000000000081b50  0000000000081b50  00001bc8  2**4
                  ALLOC
Contents of section .text:
 80000 a10038d5 3f0440f2 60000054 5f2003d5  ..8.?.@.`..T_ ..
 80010 ffffff17 01000090 21000091 3f000091  ........!...?...
 80020 010000b0 21402d91 e2000018 82000034  ....!@-........4
 80030 3f8400f8 42040051 a2ffff35 4d030094  ?...B..Q...5M...
 80040 f3ffff17 7b000000 020186d2 830086d2  ....{...........
 80050 02e0a7f2 03e0a7f2 400040b9 610040b9  ........@.@.a.@.
 80060 440040b9 9f00006b 60000054 400040b9  D.@....k`..T@.@.
 80070 610040b9 e103012a 208000aa c0035fd6  a.@....* ....._.
 80080 030186d2 840086d2 03e0a7f2 04e0a7f2  ................
 80090 650040b9 820040b9 610040b9 bf00016b  e.@...@.a.@....k
 800a0 60000054 610040b9 820040b9 e203022a  `..Ta.@...@....*
 800b0 418001aa 410200b4 030186d2 850086d2  A...A...........
 800c0 2040208b 03e0a7f2 05e0a7f2 1f2003d5   @ .......... ..
 800d0 640040b9 a20040b9 610040b9 9f00016b  d.@...@.a.@....k
 800e0 60000054 610040b9 a20040b9 e203022a  `..Ta.@...@....*
 800f0 418001aa 1f0001eb c8feff54 c0035fd6  A..........T.._.
 80100 000c0012 040000b0 82802d91 011797d2  ..........-.....
 80110 0200022a 01e0a7f2 200040b9 e0ffff37  ...*.... .@....7
 80120 001497d2 011397d2 00e0a7f2 031097d2  ................
 80130 01e0a7f2 03e0a7f2 020000b9 1f2003d5  ............. ..
 80140 200040b9 e0fff737 600040b9 1f00026b   .@....7`.@....k
 80150 81ffff54 84802d91 0000b052 810440b9  ...T..-....R..@.
 80160 3f00006b e0179f1a c0035fd6 00000000  ?..k......_.....
 80170 820080d2 831280d2 02e4a7f2 03e4a7f2  ................
 80180 04008452 c0128052 410040b9 2400a072  ...R...RA.@.$..r
 80190 21640e12 2100042a 410000b9 7f0000b9  !d..!..*A.......
 801a0 1f2003d5 00040071 c1ffff54 011380d2  . .....q...T....
 801b0 02009852 01e4a7f2 c0128052 220000b9  ...R.......R"...
 801c0 1f2003d5 00040071 c1ffff54 001380d2  . .....q...T....
 801d0 83008ad2 00e4a7f2 23e4a7f2 89088ad2  ........#.......
 801e0 010c8ad2 1f0000b9 29e4a7f2 21e4a7f2  ........)...!...
 801f0 88098ad2 600040b9 28e4a7f2 070a8ad2  ....`.@.(.......
 80200 05098ad2 00000032 600000b9 3f0100b9  .......2`...?...
 80210 27e4a7f2 3f0000b9 62008052 25e4a7f2  '...?...b..R%...
 80220 020100b9 040d8ad2 ff0000b9 24e4a7f2  ............$...
 80230 c6188052 a60000b9 c0218052 800000b9  ...R.....!.R....
 80240 220000b9 c0035fd6 820a8ad2 22e4a7f2  "....._....."...
 80250 1f2003d5 410040b9 c1ff2f36 01088ad2  . ..A.@.../6....
 80260 21e4a7f2 200000b9 c0035fd6 1f2003d5  !... ....._.. ..
 80270 810a8ad2 21e4a7f2 1f2003d5 200040b9  ....!.... .. .@.
 80280 c0ff0736 00088ad2 41018052 20e4a7f2  ...6....A..R ...
 80290 000040b9 001c0012 1f340071 0010811a  ..@......4.q....
 802a0 c0035fd6 1f2003d5 01004039 21020034  .._.. ....@9!..4
 802b0 820a8ad2 04088ad2 22e4a7f2 24e4a7f2  ........"...$...
 802c0 a5018052 1f2003d5 3f280071 40010054  ...R. ..?(.q@..T
 802d0 03144038 1f2003d5 1f2003d5 410040b9  ..@8. ... ..A.@.
 802e0 c1ff2f36 830000b9 01004039 e1feff35  ../6......@9...5
 802f0 c0035fd6 1f2003d5 410040b9 c1ff2f36  .._.. ..A.@.../6
 80300 850000b9 f3ffff17 820a8ad2 06088ad2  ................
 80310 83038052 22e4a7f2 26e4a7f2 1f2003d5  ...R"...&.... ..
 80320 0124c31a 210c0012 25dc0011 24c00011  .$..!...%...$...
 80330 3f280071 8430851a 1f2003d5 410040b9  ?(.q.0... ..A.@.
 80340 c1ff2f36 c40000b9 63100051 7f100031  ../6....c..Q...1
 80350 81feff54 c0035fd6 fd7bbba9 000000b0  ...T.._..{......
 80360 81118052 62009052 fd030091 f30b00f9  ...Rb..R........
 80370 13802d91 01600bb9 8200a072 01018052  ..-..`.....r...R
 80380 03808052 7f0600b9 00608052 620a00b9  ...R.....`.Rb...
 80390 84009052 610e00b9 8400a072 611200b9  ...Ra......ra...
 803a0 28019052 631600b9 8800a072 601a00b9  (..Rc......r`...
 803b0 a7009052 641e00b9 8700a072 612200b9  ...Rd......ra"..
 803c0 82008052 612600b9 06048052 632a00b9  ...Ra&.....Rc*..
 803d0 c5009052 602e00b9 8500a072 683200b9  ...R`......rh2..
 803e0 24008052 613600b9 8400a072 613a00b9  $..Ra6.....ra:..
 803f0 03018052 7f3e00b9 8300a072 7f4200b9  ...R.>.....r.B..
 80400 e003012a 674600b9 624a00b9 624e00b9  ...*gF..bJ..bN..
 80410 665200b9 655600b9 625a00b9 625e00b9  fR..eV..bZ..b^..
 80420 7f6200b9 646600b9 616a00b9 616e00b9  .b..df..aj..an..
 80430 627200b9 7f7600b9 637a00b9 627e00b9  br...v..cz..b~..
 80440 628200b9 7f8600b9 7f8a00b9 2dffff97  b...........-...
 80450 c0000035 f30b40f9 000000b0 fd7bc5a8  ...5..@......{..
 80460 00c01f91 91ffff17 607240b9 060000b0  ........`r@.....
 80470 b4d701a9 140000b0 00740012 607200b9  .........t..`r..
 80480 b6df02a9 150000b0 607240b9 170000b0  ........`r@.....
 80490 671640b9 160000b0 651a40b9 648640b9  g.@.....e.@.d.@.
 804a0 e003002a 635240b9 626240b9 617640b9  ...*cR@.bb@.av@.
 804b0 b8e703a9 190000b0 180000b0 87f60bb9  ................
 804c0 c00006f9 000000b0 25fb0bb9 00401b91  ........%....@..
 804d0 040b0cb9 e3f20bb9 c20e0cb9 a1fe0bb9  ................
 804e0 72ffff97 000000b0 00a01b91 6fffff97  r...........o...
 804f0 80f64bb9 140000b0 94021c91 83ffff97  ..K.............
 80500 e00314aa 69ffff97 000000b0 00401c91  ....i........@..
 80510 66ffff97 20fb4bb9 7cffff97 e00314aa  f... .K.|.......
 80520 62ffff97 000000b0 00a01c91 5fffff97  b..........._...
 80530 000b4cb9 75ffff97 000000b0 00001d91  ..L.u...........
 80540 5affff97 000000b0 00401d91 57ffff97  Z........@..W...
 80550 e0f24bb9 6dffff97 000000b0 00a01d91  ..K.m...........
 80560 52ffff97 000000b0 00001e91 4fffff97  R...........O...
 80570 c00e4cb9 65ffff97 000000b0 00601e91  ..L.e........`..
 80580 4affff97 000000b0 00c01e91 47ffff97  J...........G...
 80590 607240b9 5dffff97 000000b0 00201f91  `r@.]........ ..
 805a0 42ffff97 000000b0 00401f91 3fffff97  B........@..?...
 805b0 a0fe4bb9 55ffff97 f30b40f9 b4d741a9  ..K.U.....@...A.
 805c0 000000b0 b6df42a9 00a01f91 b8e743a9  ......B.......C.
 805d0 fd7bc5a8 35ffff17 040000b0 0800020b  .{..5...........
 805e0 060000b0 4500010b 870046f9 c6d02f91  ....E.....F.../.
 805f0 1f00086b ca010054 e203012a 3f00056b  ...k...T...*?..k
 80600 0a010054 1f2003d5 c40040b9 0408041b  ...T. ....@.....
 80610 42040011 bf00026b e37824b8 61ffff54  B......k.x$.a..T
 80620 00040011 1f01006b 81feff54 c0035fd6  .......k...T.._.
 80630 1f000071 6d070054 050000b0 060000b0  ...qm..T........
 80640 4d781f53 c6d02f91 a70046f9 0c008052  Mx.S../...F....R
 80650 0e008052 1f2003d5 cf010012 4b000c0b  ...R. ......K...
 80660 2e060036 3f000071 4d050054 f003022a  ...6?..qM..T...*
 80670 0f008052 11008052 4a000f0b e9030c2a  ...R...RJ......*
 80680 9f010b6b ca030054 e5030f2a ff010a6b  ...k...T...*...k
 80690 0a010054 1f2003d5 c80040b9 2815081b  ...T. ....@.(...
 806a0 a5040011 bf000a6b e47828b8 61ffff54  .......k.x(.a..T
 806b0 29050011 3f010b6b 81feff54 4a00100b  )...?..k...TJ...
 806c0 e9030c2a 1f2003d5 e503102a 1f020a6b  ...*. .....*...k
 806d0 0a010054 1f2003d5 c80040b9 2815081b  ...T. ....@.(...
 806e0 a5040011 bf000a6b e37828b8 61ffff54  .......k.x(.a..T
 806f0 29050011 3f010b6b 81feff54 310a0011  )...?..k...T1...
 80700 10020d0b ef010d0b 3f00116b 6cfbff54  ........?..kl..T
 80710 ce050011 ec030b2a 1f000e6b e1f9ff54  .......*...k...T
 80720 c0035fd6 f003022a 11008052 3f000071  .._....*...R?..q
 80730 0dffff54 1f2003d5 4a000f0b e9030c2a  ...T. ..J......*
 80740 9f010b6b ca030054 e5030f2a ff010a6b  ...k...T...*...k
 80750 0a010054 1f2003d5 c80040b9 2815081b  ...T. ....@.(...
 80760 a5040011 bf000a6b e37828b8 61ffff54  .......k.x(.a..T
 80770 29050011 3f010b6b 81feff54 4a00100b  )...?..k...TJ...
 80780 e9030c2a 1f2003d5 e503102a 1f020a6b  ...*. .....*...k
 80790 0a010054 1f2003d5 c80040b9 2815081b  ...T. ....@.(...
 807a0 a5040011 bf000a6b e47828b8 61ffff54  .......k.x(.a..T
 807b0 29050011 3f010b6b 81feff54 310a0011  )...?..k...T1...
 807c0 10020d0b ef010d0b 3f00116b 6cfbff54  ........?..kl..T
 807d0 ce050011 ec030b2a 1f000e6b e1f3ff54  .......*...k...T
 807e0 d0ffff17 1f2003d5 010000b0 000000b0  ..... ..........
 807f0 04109052 0310a052 21f44bb9 0410a072  ...R...R!.K....r
 80800 00f84bb9 02088052 217c0653 007c0653  ..K....R!|.S.|.S
 80810 88ffff17 00000000 040000b0 030000b0  ................
 80820 84403091 63002191 050080d2 1f2003d5  .@0.c.!...... ..
 80830 a2000c91 e00305aa 016863b8 016824b8  .........hc..h$.
 80840 00000191 1f0002eb 81ffff54 a5100091  ...........T....
 80850 bf0001f1 e1feff54 c0035fd6 1f2003d5  .......T.._.. ..
 80860 047c7c93 030000b0 84c0218b 63002191  .||.......!.c.!.
 80870 637864b8 23030034 7f040071 00040054  cxd.#..4...q...T
 80880 7f080071 20030054 7f0c0071 20040054  ...q ..T...q ..T
 80890 7f100071 80040054 7f140071 e0040054  ...q...T...q...T
 808a0 fd7bbea9 7f200071 fd030091 f35301a9  .{... .q.....S..
 808b0 f403012a f303002a e0050054 7f240071  ...*...*...T.$.q
 808c0 60040054 7f280071 00070054 f35341a9  `..T.(.q...T.SA.
 808d0 fd7bc2a8 c0035fd6 217c021b 03e0bf12  .{...._.!|......
 808e0 007c021b 3dffff17 217c021b 83969652  .|..=...!|.....R
 808f0 007c021b 8316a072 38ffff17 217c021b  .|.....r8...!|..
 80900 c3dc9c52 007c021b c31ca072 33ffff17  ...R.|.....r3...
 80910 217c021b 43509052 007c021b 4310a072  !|..CP.R.|..C..r
 80920 2effff17 217c021b 030a8a52 007c021b  ....!|.....R.|..
 80930 030aa072 29ffff17 217c021b c3c08052  ...r)...!|.....R
 80940 007c021b c300a072 24ffff17 217c021b  .|.....r$...!|..
 80950 03189852 007c021b 0318a072 1fffff97  ...R.|.....r....
 80960 010000b0 000000b0 34200fb9 13280fb9  ........4 ...(..
 80970 d7ffff17 217c021b 03108052 007c021b  ....!|.....R.|..
 80980 16ffff97 030000b0 020000b0 010000b0  ................
 80990 000000b0 73100fb9 54240fb9 33140fb9  ....s...T$..3...
 809a0 141c0fb9 caffff17 f35341a9 217c021b  .........SA.!|..
 809b0 007c021b 838f8f52 fd7bc2a8 831fa072  .|.....R.{.....r
 809c0 06ffff17 1f2003d5 217c7c93 020000b0  ..... ..!||.....
 809d0 20c0208b 42002191 407860b8 00040051   . .B.!.@x`....Q
 809e0 1f100071 e0879f1a c0035fd6 1f2003d5  ...q......_.. ..
 809f0 030000b0 010000b0 020000b0 000000b0  ................
 80a00 65144fb9 040000b0 211c4fb9 030000b0  e.O.....!.O.....
 80a10 84002191 63403091 45100fb9 050080d2  ..!.c@0.E.......
 80a20 01240fb9 1f2003d5 a2000c91 e00305aa  .$... ..........
 80a30 016863b8 016824b8 00000191 1f0002eb  .hc..h$.........
 80a40 81ffff54 a5100091 bf0001f1 e1feff54  ...T...........T
 80a50 c0035fd6 1f2003d5 fd7bbda9 fd030091  .._.. ...{......
 80a60 f51300f9 f503002a f35301a9 14008052  .......*.S.....R
 80a70 13008052 1f2003d5 e003132a e203152a  ...R. .....*...*
 80a80 e103142a 73060011 76ffff97 7f320071  ...*s...v....2.q
 80a90 41ffff54 94060011 9f420071 a1feff54  A..T.....B.q...T
 80aa0 f35341a9 f51340f9 fd7bc3a8 c0035fd6  .SA...@..{...._.
 80ab0 040000b0 020000b0 e303012a 81244fb9  ...........*.$O.
 80ac0 44104fb9 e203002a 017c011b 007c041b  D.O....*.|...|..
 80ad0 c2feff17 1f2003d5 007c7c93 020000b0  ..... ...||.....
 80ae0 00c0218b 42002191 407860b8 c0035fd6  ..!.B.!.@x`..._.
 80af0 007c7c93 030000b0 00c0218b 63002191  .||.......!.c.!.
 80b00 627820b8 c0035fd6 fd7bbba9 810380d2  bx ..._..{......
 80b10 01e4a7f2 80018052 fd030091 f35301a9  .......R.....S..
 80b20 14008052 f55b02a9 960680d2 f76303a9  ...R.[.......c..
 80b30 f80301aa f92300f9 19408052 390000b9  .....#...@.R9...
 80b40 13008052 15008152 16e4a7f2 4dfdff97  ...R...R....M...
 80b50 000580d2 00e4a7f2 f70300aa 190000b9  ................
 80b60 c0008052 47fdff97 f50200b9 21008052  ...RG.......!..R
 80b70 2120d31a 2100142a c20240b9 213c0012  ! ..!..*..@.!<..
 80b80 c0008052 73060011 5f0076f2 3400941a  ...Rs..._.v.4...
 80b90 3cfdff97 150300b9 7f420071 21feff54  <........B.q!..T
 80ba0 e003142a f92340f9 f35341a9 f55b42a9  ...*.#@..SA..[B.
 80bb0 f76343a9 fd7bc5a8 c0035fd6 1f2003d5  .cC..{...._.. ..
 80bc0 02e4a7d2 831280d2 03e4a7f2 c0128052  ...............R
 80bd0 410040b9 21700212 21000532 410000b9  A.@.!p..!..2A...
 80be0 7f0000b9 1f2003d5 1f2003d5 00040071  ..... ... .....q
 80bf0 c1ffff54 011380d2 02408052 01e4a7f2  ...T.....@.R....
 80c00 c0128052 220000b9 1f2003d5 00040071  ...R".... .....q
 80c10 c1ffff54 001380d2 00e4a7f2 1f0000b9  ...T............
 80c20 c0035fd6 1f2003d5 800380d2 01408052  .._.. .......@.R
 80c30 00e4a7f2 010000b9 c0035fd6 1f2003d5  .........._.. ..
 80c40 000580d2 01408052 00e4a7f2 010000b9  .....@.R........
 80c50 c0035fd6 1f2003d5 820080d2 831280d2  .._.. ..........
 80c60 02e4a7f2 03e4a7f2 c0128052 410040b9  ...........RA.@.
 80c70 21701a12 21001d32 410000b9 7f0000b9  !p..!..2A.......
 80c80 1f2003d5 00040071 c1ffff54 011380d2  . .....q...T....
 80c90 02008152 01e4a7f2 c0128052 220000b9  ...R.......R"...
 80ca0 1f2003d5 00040071 c1ffff54 001380d2  . .....q...T....
 80cb0 00e4a7f2 1f0000b9 c0035fd6 1f2003d5  .........._.. ..
 80cc0 800380d2 01008152 00e4a7f2 010000b9  .......R........
 80cd0 c0035fd6 1f2003d5 000580d2 01008152  .._.. .........R
 80ce0 00e4a7f2 010000b9 c0035fd6 1f2003d5  .........._.. ..
 80cf0 820080d2 831280d2 02e4a7f2 03e4a7f2  ................
 80d00 c0128052 410040b9 21701d12 410000b9  ...RA.@.!p..A...
 80d10 7f0000b9 1f2003d5 1f2003d5 00040071  ..... ... .....q
 80d20 c1ffff54 011380d2 02808052 01e4a7f2  ...T.......R....
 80d30 c0128052 220000b9 1f2003d5 00040071  ...R".... .....q
 80d40 c1ffff54 001380d2 00e4a7f2 1f0000b9  ...T............
 80d50 c0035fd6 1f2003d5 800680d2 00e4a7f2  .._.. ..........
 80d60 000040b9 00284ad3 c0035fd6 00000000  ..@..(J..._.....
 80d70 fd7bbaa9 fd030091 f35301a9 f55b02a9  .{.......S...[..
 80d80 f76303a9 f96b04a9 fb7305a9 f9fcff97  .c...k...s......
 80d90 02e4a7d2 831280d2 03e4a7f2 c1128052  ...............R
 80da0 400040b9 00700212 00000532 400000b9  @.@..p.....2@...
 80db0 7f0000b9 1f2003d5 21040071 c1ffff54  ..... ..!..q...T
 80dc0 011380d2 02408052 01e4a7f2 c0128052  .....@.R.......R
 80dd0 220000b9 1f2003d5 00040071 c1ffff54  ".... .....q...T
 80de0 001380d2 820080d2 00e4a7f2 02e4a7f2  ................
 80df0 831280d2 c1128052 1f0000b9 03e4a7f2  .......R........
 80e00 400040b9 00701a12 00001d32 400000b9  @.@..p.....2@...
 80e10 7f0000b9 1f2003d5 21040071 c1ffff54  ..... ..!..q...T
 80e20 011380d2 02008152 01e4a7f2 c0128052  .......R.......R
 80e30 220000b9 1f2003d5 00040071 c1ffff54  ".... .....q...T
 80e40 001380d2 820080d2 00e4a7f2 02e4a7f2  ................
 80e50 831280d2 c1128052 1f0000b9 03e4a7f2  .......R........
 80e60 400040b9 00701d12 400000b9 7f0000b9  @.@..p..@.......
 80e70 1f2003d5 21040071 c1ffff54 011380d2  . ..!..q...T....
 80e80 02808052 01e4a7f2 c0128052 220000b9  ...R.......R"...
 80e90 1f2003d5 00040071 c1ffff54 001380d2  . .....q...T....
 80ea0 020580d2 00e4a7f2 02e4a7f2 810380d2  ................
 80eb0 03408052 01e4a7f2 1f0000b9 430000b9  .@.R........C...
 80ec0 000000b0 00402091 02008152 220000b9  .....@ ....R"...
 80ed0 180000b0 170000b0 130080d2 f3fcff97  ................
 80ee0 1efdff97 010000b0 22403091 e1022191  ........"@0...!.
 80ef0 00108052 001b0fb9 63020c91 e00313aa  ...R....c.......
 80f00 046861b8 046822b8 00000191 1f0003eb  .ha..h".........
 80f10 81ffff54 73120091 7f0201f1 e1feff54  ...Ts..........T
 80f20 e003132a 140000b0 ccfeff97 150000b0  ...*............
 80f30 031b4fb9 160000b0 81264fb9 d6422d91  ..O......&O..B-.
 80f40 a0124fb9 94923c91 b5423c91 e203132a  ..O...<..B<....*
 80f50 190000b0 f3ff9f52 1c0000b0 1b0000b0  .......R........
 80f60 21641a53 00641a53 9cfdff97 1f2003d5  !d.S.d.S..... ..
 80f70 e6feff97 1a3c0012 7f021a6b a0ffff54  .....<.....k...T
 80f80 ba0f1837 c00240b9 1f040071 21ffff54  ...7..@....q!..T
 80f90 810240b9 3a143037 5a043836 3f380071  ..@.:.07Z.86?8.q
 80fa0 0c040054 a00240b9 26040011 e4022191  ...T..@.&.....!.
 80fb0 027c7c93 48c0268b 837868b8 67040051  .||.H.&..xh.g..Q
 80fc0 ff100071 e9020054 a3340034 7f280071  ...q...T.4.4.(.q
 80fd0 01010054 43c0218b e103062a 02088052  ...TC.!....*...R
 80fe0 9f7823b8 1ffeff97 810240b9 a00240b9  .x#.......@...@.
 80ff0 02088052 1bfeff97 810240b9 02088052  ...R......@....R
 81000 031b4fb9 a00240b9 21040011 810200b9  ..O...@.!.......
 81010 21641a53 00641a53 70fdff97 810240b9  !d.S.d.Sp.....@.
 81020 9a032036 a30240b9 7f000071 2d030054  .. 6..@....q-..T
 81030 60040051 227c4093 e4022191 47d0208b  `..Q"|@...!.G. .
 81040 867867b8 c8040051 1f110071 29020054  .xg....Q...q)..T
 81050 66250034 df280071 e02a0054 e003032a  f%.4.(.q.*.T...*
 81060 02088052 fffdff97 a00240b9 02088052  ...R......@....R
 81070 031b4fb9 810240b9 00040051 a00200b9  ..O...@....Q....
 81080 00641a53 21641a53 54fdff97 810240b9  .d.S!d.ST.....@.
 81090 5a042836 a30240b9 7f280071 ec030054  Z.(6..@..(.q...T
 810a0 60040011 227c4093 e4022191 47d0208b  `..."|@...!.G. .
 810b0 867867b8 c8040051 1f110071 e9020054  .xg....Q...q...T
 810c0 c62b0034 df280071 e1000054 43d0238b  .+.4.(.q...TC.#.
 810d0 02088052 9f7823b8 e2fdff97 810240b9  ...R.x#.......@.
 810e0 a30240b9 e003032a 02088052 ddfdff97  ..@....*...R....
 810f0 a00240b9 02088052 031b4fb9 810240b9  ..@....R..O...@.
 81100 00040011 a00200b9 00641a53 21641a53  .........d.S!d.S
 81110 32fdff97 810240b9 00488052 4003000a  2.....@..H.R@...
 81120 1f000971 000b0054 00508052 4003000a  ...q...T.P.R@...
 81130 1f000a71 800e0054 00428052 4003000a  ...q...T.B.R@...
 81140 1f400871 00120054 00448052 4003000a  .@.q...T.D.R@...
 81150 1f800871 60150054 20234fb9 1f00016b  ...q`..T #O....k
 81160 c0180054 60238852 f3031a2a c5fbff97  ...T`#.R...*....
 81170 80ffff17 810240b9 02088052 a00240b9  ......@....R..@.
 81180 130080d2 b7fdff97 00000090 21234fb9  ............!#O.
 81190 02088052 00284fb9 b2fdff97 601f4fb9  ...R.(O.....`.O.
 811a0 e4022191 81174fb9 800200b9 00000090  ..!...O.........
 811b0 03403091 a10200b9 62020c91 e00313aa  .@0.....b.......
 811c0 016863b8 016824b8 00000191 1f0002eb  .hc..h$.........
 811d0 81ffff54 73120091 7f0201f1 e1feff54  ...Ts..........T
 811e0 e003132a 1dfeff97 810240b9 e31fa052  ...*......@....R
 811f0 a00240b9 e203132a 031b0fb9 21641a53  ..@....*....!d.S
 81200 00641a53 f5fcff97 20008052 c00200b9  .d.S.... ..R....
 81210 810240b9 3aec3736 3f000071 edebff54  ..@.:.76?..q...T
 81220 a00240b9 26040051 e4022191 027c7c93  ..@.&..Q..!..||.
 81230 48c0268b 837868b8 67040051 ff100071  H.&..xh.g..Q...q
 81240 c9eaff54 83140034 7f280071 201c0054  ...T...4.(.q ..T
 81250 02088052 83fdff97 810240b9 02088052  ...R......@....R
 81260 031b4fb9 a00240b9 21040051 810200b9  ..O...@.!..Q....
 81270 21641a53 00641a53 d8fcff97 810240b9  !d.S.d.S......@.
 81280 46ffff17 3f000071 0df5ff54 a00240b9  F...?..q...T..@.
 81290 21040051 02088052 72fdff97 810240b9  !..Q...Rr.....@.
 812a0 e6022191 a00240b9 24040051 037c7c93  ..!...@.$..Q.||.
 812b0 63c0248b c27863b8 5f140071 80140054  c.$..xc._..q...T
 812c0 5f100071 00140054 5f0c0071 80130054  _..q...T_..q...T
 812d0 5f080071 60120054 5f040071 61f2ff54  _..q`..T_..qa..T
 812e0 e103042a df7823b8 02088052 5dfdff97  ...*.x#....R]...
 812f0 00508052 4003000a 810240b9 1f000a71  .P.R@.....@....q
 81300 c1f1ff54 3f380071 8cf1ff54 a00240b9  ...T?8.q...T..@.
 81310 21040011 02088052 52fdff97 810240b9  !......RR.....@.
 81320 e6022191 a00240b9 24040011 037c7c93  ..!...@.$....||.
 81330 63c0248b c27863b8 5f140071 601b0054  c.$..xc._..q`..T
 81340 5f100071 e01a0054 5f0c0071 c0190054  _..q...T_..q...T
 81350 5f080071 a01b0054 5f040071 e1eeff54  _..q...T_..q...T
 81360 e103042a df7823b8 02088052 3dfdff97  ...*.x#....R=...
 81370 00428052 4003000a 810240b9 1f400871  .B.R@.....@..@.q
 81380 41eeff54 a00240b9 1f000071 ededff54  A..T..@....q...T
 81390 02088052 00040051 32fdff97 a00240b9  ...R...Q2.....@.
 813a0 e4022191 810240b9 00040051 037c7c93  ..!...@....Q.||.
 813b0 63c0218b 827863b8 5f140071 000f0054  c.!..xc._..q...T
 813c0 5f100071 000e0054 5f0c0071 000d0054  _..q...T_..q...T
 813d0 5f080071 000c0054 5f040071 61ebff54  _..q...T_..qa..T
 813e0 9f7823b8 02088052 1efdff97 00448052  .x#....R.....D.R
 813f0 4003000a 810240b9 1f800871 e1eaff54  @.....@....q...T
 81400 a00240b9 1f280071 8ceaff54 02088052  ..@..(.q...T...R
 81410 00040011 13fdff97 a00240b9 e4022191  ..........@...!.
 81420 810240b9 00040011 037c7c93 63c0218b  ..@......||.c.!.
 81430 827863b8 5f140071 400f0054 5f100071  .xc._..q@..T_..q
 81440 400e0054 5f0c0071 400d0054 5f080071  @..T_..q@..T_..q
 81450 00130054 5f040071 01e8ff54 9f7823b8  ...T_..q...T.x#.
 81460 02088052 fffcff97 810240b9 20234fb9  ...R......@. #O.
 81470 1f00016b 81e7ff54 00000090 01284fb9  ...k...T.....(O.
 81480 a00240b9 3f00006b e1e6ff54 00000090  ..@.?..k...T....
 81490 00e02091 85fbff97 810240b9 02088052  .. .......@....R
 814a0 a00240b9 effcff97 810240b9 03009052  ..@.......@....R
 814b0 a00240b9 02088052 21641a53 00641a53  ..@....R!d.S.d.S
 814c0 46fcff97 600c8052 800200b9 a00200b9  F...`..R........
 814d0 25ffff17 43c0218b 47018052 877828b8  %...C.!.G..R.x(.
 814e0 e103062a 02088052 877823b8 ddfcff97  ...*...R.x#.....
 814f0 810240b9 a00240b9 56ffff17 43d0238b  ..@...@.V...C.#.
 81500 46018052 867827b8 02088052 867823b8  F..R.x'....R.x#.
 81510 d4fcff97 810240b9 a30240b9 d0feff17  ......@...@.....
 81520 21008052 c17823b8 02088052 e103042a  !..R.x#....R...*
 81530 ccfcff97 810240b9 fcfeff17 41008052  ......@.....A..R
 81540 f9ffff17 61008052 f7ffff17 81008052  ....a..R.......R
 81550 f5ffff17 26008052 02088052 867823b8  ....&..R...R.x#.
 81560 c0fcff97 810240b9 f8feff17 46008052  ......@.....F..R
 81570 02088052 867823b8 bafcff97 810240b9  ...R.x#.......@.
 81580 f2feff17 66008052 02088052 867823b8  ....f..R...R.x#.
 81590 b4fcff97 810240b9 ecfeff17 86008052  ......@........R
 815a0 02088052 867823b8 aefcff97 810240b9  ...R.x#.......@.
 815b0 e6feff17 43d0238b 02088052 9f7823b8  ....C.#....R.x#.
 815c0 a8fcff97 810240b9 a30240b9 a4feff17  ......@...@.....
 815d0 43c0218b e103062a 02088052 9f7823b8  C.!....*...R.x#.
 815e0 a0fcff97 810240b9 a00240b9 19ffff17  ......@...@.....
 815f0 46008052 02088052 867823b8 99fcff97  F..R...R.x#.....
 81600 810240b9 d5feff17 66008052 02088052  ..@.....f..R...R
 81610 867823b8 93fcff97 810240b9 cffeff17  .x#.......@.....
 81620 86008052 02088052 867823b8 8dfcff97  ...R...R.x#.....
 81630 810240b9 c9feff17 43d0238b 46018052  ..@.....C.#.F..R
 81640 867827b8 02088052 867823b8 85fcff97  .x'....R.x#.....
 81650 810240b9 a30240b9 a3feff17 43c0218b  ..@...@.....C.!.
 81660 47018052 877828b8 e103062a 02088052  G..R.x(....*...R
 81670 877823b8 7bfcff97 810240b9 a00240b9  .x#.{.....@...@.
 81680 5cfeff17 41008052 c17823b8 02088052  \...A..R.x#....R
 81690 e103042a 73fcff97 810240b9 a7feff17  ...*s.....@.....
 816a0 61008052 f9ffff17 81008052 f7ffff17  a..R.......R....
 816b0 26008052 02088052 867823b8 69fcff97  &..R...R.x#.i...
 816c0 810240b9 a5feff17 21008052 efffff17  ..@.....!..R....
Contents of section .rodata:
 816d0 4672616d 65206275 66666572 20736574  Frame buffer set
 816e0 74696e67 733a0a00 20202020 77696474  tings:..    widt
 816f0 683a2020 20202020 20307800 00000000  h:       0x.....
 81700 20706978 656c730a 00000000 00000000   pixels.........
 81710 20202020 68656967 68743a20 20202020      height:     
 81720 20307800 00000000 20202020 70697463   0x.....    pitc
 81730 683a2020 20202020 20307800 00000000  h:       0x.....
 81740 20627974 65732070 65722072 6f770a00   bytes per row..
 81750 20202020 64657074 683a2020 20202020      depth:      
 81760 20307800 00000000 20626974 73207065   0x..... bits pe
 81770 72207069 78656c0a 00000000 00000000  r pixel.........
 81780 20202020 70697865 6c206f72 6465723a      pixel order:
 81790 20307800 00000000 2028303d 4247522c   0x..... (0=BGR,
 817a0 20313d52 4742290a 00000000 00000000   1=RGB).........
 817b0 20202020 61646472 6573733a 20202020      address:    
 817c0 20307800 00000000 0a000000 00000000   0x.............
 817d0 20202020 73697a65 3a202020 20202020      size:       
 817e0 20307800 00000000 20627974 65730a00   0x..... bytes..
 817f0 43616e6e 6f742069 6e697469 616c697a  Cannot initializ
 81800 65206672 616d6520 62756666 65720a00  e frame buffer..
 81810 534e4553 20436f6e 74726f6c 6c657220  SNES Controller 
 81820 50726f67 72616d20 73746172 74696e67  Program starting
 81830 2e0a0000 00000000 454e4420 2f6c6e00  ........END /ln.
Contents of section .data:
 81840 05000000 05000000 05000000 05000000  ................
 81850 05000000 05000000 05000000 05000000  ................
 81860 05000000 05000000 05000000 05000000  ................
 81870 05000000 05000000 05000000 05000000  ................
 81880 08000000 05000000 05000000 00000000  ................
 81890 05000000 00000000 00000000 00000000  ................
 818a0 00000000 00000000 05000000 00000000  ................
 818b0 00000000 00000000 00000000 05000000  ................
 818c0 00000000 05000000 00000000 00000000  ................
 818d0 05000000 00000000 05000000 00000000  ................
 818e0 05000000 00000000 00000000 00000000  ................
 818f0 05000000 05000000 00000000 05000000  ................
 81900 00000000 05000000 05000000 05000000  ................
 81910 05000000 00000000 05000000 00000000  ................
 81920 05000000 05000000 05000000 05000000  ................
 81930 05000000 05000000 00000000 05000000  ................
 81940 00000000 05000000 00000000 05000000  ................
 81950 00000000 00000000 05000000 00000000  ................
 81960 00000000 00000000 00000000 00000000  ................
 81970 00000000 05000000 00000000 05000000  ................
 81980 00000000 00000000 00000000 00000000  ................
 81990 00000000 05000000 05000000 05000000  ................
 819a0 05000000 05000000 00000000 05000000  ................
 819b0 05000000 05000000 00000000 05000000  ................
 819c0 00000000 05000000 00000000 05000000  ................
 819d0 00000000 05000000 00000000 00000000  ................
 819e0 00000000 05000000 00000000 05000000  ................
 819f0 00000000 00000000 00000000 05000000  ................
 81a00 00000000 05000000 05000000 05000000  ................
 81a10 00000000 05000000 00000000 05000000  ................
 81a20 05000000 05000000 00000000 05000000  ................
 81a30 00000000 05000000 05000000 05000000  ................
 81a40 00000000 05000000 00000000 05000000  ................
 81a50 00000000 05000000 00000000 05000000  ................
 81a60 00000000 05000000 00000000 05000000  ................
 81a70 00000000 05000000 00000000 09000000  ................
 81a80 00000000 00000000 00000000 05000000  ................
 81a90 00000000 00000000 00000000 05000000  ................
 81aa0 00000000 05000000 00000000 05000000  ................
 81ab0 05000000 05000000 00000000 05000000  ................
 81ac0 00000000 05000000 00000000 05000000  ................
 81ad0 00000000 05000000 00000000 00000000  ................
 81ae0 00000000 05000000 00000000 00000000  ................
 81af0 00000000 00000000 00000000 05000000  ................
 81b00 05000000 05000000 05000000 05000000  ................
 81b10 05000000 05000000 05000000 05000000  ................
 81b20 05000000 05000000 05000000 05000000  ................
 81b30 05000000 05000000 05000000 05000000  ................
 81b40 0c000000 10000000                    ........        

Disassembly of section .text:

0000000000080000 <_start>:
   80000:	d53800a1 	mrs	x1, mpidr_el1
   80004:	f240043f 	tst	x1, #0x3
   80008:	54000060 	b.eq	80014 <core_zero>  // b.none

000000000008000c <loop>:
   8000c:	d503205f 	wfe
   80010:	17ffffff 	b	8000c <loop>

0000000000080014 <core_zero>:
   80014:	90000001 	adrp	x1, 80000 <_start>
   80018:	91000021 	add	x1, x1, #0x0
   8001c:	9100003f 	mov	sp, x1
   80020:	b0000001 	adrp	x1, 81000 <main+0x290>
   80024:	912d4021 	add	x1, x1, #0xb50
   80028:	180000e2 	ldr	w2, 80044 <endloop+0x8>

000000000008002c <top>:
   8002c:	34000082 	cbz	w2, 8003c <endloop>
   80030:	f800843f 	str	xzr, [x1], #8
   80034:	51000442 	sub	w2, w2, #0x1
   80038:	35ffffa2 	cbnz	w2, 8002c <top>

000000000008003c <endloop>:
   8003c:	9400034d 	bl	80d70 <main>
   80040:	17fffff3 	b	8000c <loop>
   80044:	0000007b 	.word	0x0000007b

0000000000080048 <get_timer_counter>:
   80048:	d2860102 	mov	x2, #0x3008                	// #12296
   8004c:	d2860083 	mov	x3, #0x3004                	// #12292
   80050:	f2a7e002 	movk	x2, #0x3f00, lsl #16
   80054:	f2a7e003 	movk	x3, #0x3f00, lsl #16
   80058:	b9400040 	ldr	w0, [x2]
   8005c:	b9400061 	ldr	w1, [x3]
   80060:	b9400044 	ldr	w4, [x2]
   80064:	6b00009f 	cmp	w4, w0
   80068:	54000060 	b.eq	80074 <get_timer_counter+0x2c>  // b.none
   8006c:	b9400040 	ldr	w0, [x2]
   80070:	b9400061 	ldr	w1, [x3]
   80074:	2a0103e1 	mov	w1, w1
   80078:	aa008020 	orr	x0, x1, x0, lsl #32
   8007c:	d65f03c0 	ret

0000000000080080 <microsecond_delay>:
   80080:	d2860103 	mov	x3, #0x3008                	// #12296
   80084:	d2860084 	mov	x4, #0x3004                	// #12292
   80088:	f2a7e003 	movk	x3, #0x3f00, lsl #16
   8008c:	f2a7e004 	movk	x4, #0x3f00, lsl #16
   80090:	b9400065 	ldr	w5, [x3]
   80094:	b9400082 	ldr	w2, [x4]
   80098:	b9400061 	ldr	w1, [x3]
   8009c:	6b0100bf 	cmp	w5, w1
   800a0:	54000060 	b.eq	800ac <microsecond_delay+0x2c>  // b.none
   800a4:	b9400061 	ldr	w1, [x3]
   800a8:	b9400082 	ldr	w2, [x4]
   800ac:	2a0203e2 	mov	w2, w2
   800b0:	aa018041 	orr	x1, x2, x1, lsl #32
   800b4:	b4000241 	cbz	x1, 800fc <microsecond_delay+0x7c>
   800b8:	d2860103 	mov	x3, #0x3008                	// #12296
   800bc:	d2860085 	mov	x5, #0x3004                	// #12292
   800c0:	8b204020 	add	x0, x1, w0, uxtw
   800c4:	f2a7e003 	movk	x3, #0x3f00, lsl #16
   800c8:	f2a7e005 	movk	x5, #0x3f00, lsl #16
   800cc:	d503201f 	nop
   800d0:	b9400064 	ldr	w4, [x3]
   800d4:	b94000a2 	ldr	w2, [x5]
   800d8:	b9400061 	ldr	w1, [x3]
   800dc:	6b01009f 	cmp	w4, w1
   800e0:	54000060 	b.eq	800ec <microsecond_delay+0x6c>  // b.none
   800e4:	b9400061 	ldr	w1, [x3]
   800e8:	b94000a2 	ldr	w2, [x5]
   800ec:	2a0203e2 	mov	w2, w2
   800f0:	aa018041 	orr	x1, x2, x1, lsl #32
   800f4:	eb01001f 	cmp	x0, x1
   800f8:	54fffec8 	b.hi	800d0 <microsecond_delay+0x50>  // b.pmore
   800fc:	d65f03c0 	ret

0000000000080100 <mailbox_query>:
   80100:	12000c00 	and	w0, w0, #0xf
   80104:	b0000004 	adrp	x4, 81000 <main+0x290>
   80108:	912d8082 	add	x2, x4, #0xb60
   8010c:	d2971701 	mov	x1, #0xb8b8                	// #47288
   80110:	2a020002 	orr	w2, w0, w2
   80114:	f2a7e001 	movk	x1, #0x3f00, lsl #16
   80118:	b9400020 	ldr	w0, [x1]
   8011c:	37ffffe0 	tbnz	w0, #31, 80118 <mailbox_query+0x18>
   80120:	d2971400 	mov	x0, #0xb8a0                	// #47264
   80124:	d2971301 	mov	x1, #0xb898                	// #47256
   80128:	f2a7e000 	movk	x0, #0x3f00, lsl #16
   8012c:	d2971003 	mov	x3, #0xb880                	// #47232
   80130:	f2a7e001 	movk	x1, #0x3f00, lsl #16
   80134:	f2a7e003 	movk	x3, #0x3f00, lsl #16
   80138:	b9000002 	str	w2, [x0]
   8013c:	d503201f 	nop
   80140:	b9400020 	ldr	w0, [x1]
   80144:	37f7ffe0 	tbnz	w0, #30, 80140 <mailbox_query+0x40>
   80148:	b9400060 	ldr	w0, [x3]
   8014c:	6b02001f 	cmp	w0, w2
   80150:	54ffff81 	b.ne	80140 <mailbox_query+0x40>  // b.any
   80154:	912d8084 	add	x4, x4, #0xb60
   80158:	52b00000 	mov	w0, #0x80000000            	// #-2147483648
   8015c:	b9400481 	ldr	w1, [x4, #4]
   80160:	6b00003f 	cmp	w1, w0
   80164:	1a9f17e0 	cset	w0, eq  // eq = none
   80168:	d65f03c0 	ret
   8016c:	00000000 	.inst	0x00000000 ; undefined

0000000000080170 <uart_init>:
   80170:	d2800082 	mov	x2, #0x4                   	// #4
   80174:	d2801283 	mov	x3, #0x94                  	// #148
   80178:	f2a7e402 	movk	x2, #0x3f20, lsl #16
   8017c:	f2a7e403 	movk	x3, #0x3f20, lsl #16
   80180:	52840004 	mov	w4, #0x2000                	// #8192
   80184:	528012c0 	mov	w0, #0x96                  	// #150
   80188:	b9400041 	ldr	w1, [x2]
   8018c:	72a00024 	movk	w4, #0x1, lsl #16
   80190:	120e6421 	and	w1, w1, #0xfffc0fff
   80194:	2a040021 	orr	w1, w1, w4
   80198:	b9000041 	str	w1, [x2]
   8019c:	b900007f 	str	wzr, [x3]
   801a0:	d503201f 	nop
   801a4:	71000400 	subs	w0, w0, #0x1
   801a8:	54ffffc1 	b.ne	801a0 <uart_init+0x30>  // b.any
   801ac:	d2801301 	mov	x1, #0x98                  	// #152
   801b0:	52980002 	mov	w2, #0xc000                	// #49152
   801b4:	f2a7e401 	movk	x1, #0x3f20, lsl #16
   801b8:	528012c0 	mov	w0, #0x96                  	// #150
   801bc:	b9000022 	str	w2, [x1]
   801c0:	d503201f 	nop
   801c4:	71000400 	subs	w0, w0, #0x1
   801c8:	54ffffc1 	b.ne	801c0 <uart_init+0x50>  // b.any
   801cc:	d2801300 	mov	x0, #0x98                  	// #152
   801d0:	d28a0083 	mov	x3, #0x5004                	// #20484
   801d4:	f2a7e400 	movk	x0, #0x3f20, lsl #16
   801d8:	f2a7e423 	movk	x3, #0x3f21, lsl #16
   801dc:	d28a0889 	mov	x9, #0x5044                	// #20548
   801e0:	d28a0c01 	mov	x1, #0x5060                	// #20576
   801e4:	b900001f 	str	wzr, [x0]
   801e8:	f2a7e429 	movk	x9, #0x3f21, lsl #16
   801ec:	f2a7e421 	movk	x1, #0x3f21, lsl #16
   801f0:	d28a0988 	mov	x8, #0x504c                	// #20556
   801f4:	b9400060 	ldr	w0, [x3]
   801f8:	f2a7e428 	movk	x8, #0x3f21, lsl #16
   801fc:	d28a0a07 	mov	x7, #0x5050                	// #20560
   80200:	d28a0905 	mov	x5, #0x5048                	// #20552
   80204:	32000000 	orr	w0, w0, #0x1
   80208:	b9000060 	str	w0, [x3]
   8020c:	b900013f 	str	wzr, [x9]
   80210:	f2a7e427 	movk	x7, #0x3f21, lsl #16
   80214:	b900003f 	str	wzr, [x1]
   80218:	52800062 	mov	w2, #0x3                   	// #3
   8021c:	f2a7e425 	movk	x5, #0x3f21, lsl #16
   80220:	b9000102 	str	w2, [x8]
   80224:	d28a0d04 	mov	x4, #0x5068                	// #20584
   80228:	b90000ff 	str	wzr, [x7]
   8022c:	f2a7e424 	movk	x4, #0x3f21, lsl #16
   80230:	528018c6 	mov	w6, #0xc6                  	// #198
   80234:	b90000a6 	str	w6, [x5]
   80238:	528021c0 	mov	w0, #0x10e                 	// #270
   8023c:	b9000080 	str	w0, [x4]
   80240:	b9000022 	str	w2, [x1]
   80244:	d65f03c0 	ret

0000000000080248 <uart_putc>:
   80248:	d28a0a82 	mov	x2, #0x5054                	// #20564
   8024c:	f2a7e422 	movk	x2, #0x3f21, lsl #16
   80250:	d503201f 	nop
   80254:	b9400041 	ldr	w1, [x2]
   80258:	362fffc1 	tbz	w1, #5, 80250 <uart_putc+0x8>
   8025c:	d28a0801 	mov	x1, #0x5040                	// #20544
   80260:	f2a7e421 	movk	x1, #0x3f21, lsl #16
   80264:	b9000020 	str	w0, [x1]
   80268:	d65f03c0 	ret
   8026c:	d503201f 	nop

0000000000080270 <uart_getc>:
   80270:	d28a0a81 	mov	x1, #0x5054                	// #20564
   80274:	f2a7e421 	movk	x1, #0x3f21, lsl #16
   80278:	d503201f 	nop
   8027c:	b9400020 	ldr	w0, [x1]
   80280:	3607ffc0 	tbz	w0, #0, 80278 <uart_getc+0x8>
   80284:	d28a0800 	mov	x0, #0x5040                	// #20544
   80288:	52800141 	mov	w1, #0xa                   	// #10
   8028c:	f2a7e420 	movk	x0, #0x3f21, lsl #16
   80290:	b9400000 	ldr	w0, [x0]
   80294:	12001c00 	and	w0, w0, #0xff
   80298:	7100341f 	cmp	w0, #0xd
   8029c:	1a811000 	csel	w0, w0, w1, ne  // ne = any
   802a0:	d65f03c0 	ret
   802a4:	d503201f 	nop

00000000000802a8 <uart_puts>:
   802a8:	39400001 	ldrb	w1, [x0]
   802ac:	34000221 	cbz	w1, 802f0 <uart_puts+0x48>
   802b0:	d28a0a82 	mov	x2, #0x5054                	// #20564
   802b4:	d28a0804 	mov	x4, #0x5040                	// #20544
   802b8:	f2a7e422 	movk	x2, #0x3f21, lsl #16
   802bc:	f2a7e424 	movk	x4, #0x3f21, lsl #16
   802c0:	528001a5 	mov	w5, #0xd                   	// #13
   802c4:	d503201f 	nop
   802c8:	7100283f 	cmp	w1, #0xa
   802cc:	54000140 	b.eq	802f4 <uart_puts+0x4c>  // b.none
   802d0:	38401403 	ldrb	w3, [x0], #1
   802d4:	d503201f 	nop
   802d8:	d503201f 	nop
   802dc:	b9400041 	ldr	w1, [x2]
   802e0:	362fffc1 	tbz	w1, #5, 802d8 <uart_puts+0x30>
   802e4:	b9000083 	str	w3, [x4]
   802e8:	39400001 	ldrb	w1, [x0]
   802ec:	35fffee1 	cbnz	w1, 802c8 <uart_puts+0x20>
   802f0:	d65f03c0 	ret
   802f4:	d503201f 	nop
   802f8:	b9400041 	ldr	w1, [x2]
   802fc:	362fffc1 	tbz	w1, #5, 802f4 <uart_puts+0x4c>
   80300:	b9000085 	str	w5, [x4]
   80304:	17fffff3 	b	802d0 <uart_puts+0x28>

0000000000080308 <uart_puthex>:
   80308:	d28a0a82 	mov	x2, #0x5054                	// #20564
   8030c:	d28a0806 	mov	x6, #0x5040                	// #20544
   80310:	52800383 	mov	w3, #0x1c                  	// #28
   80314:	f2a7e422 	movk	x2, #0x3f21, lsl #16
   80318:	f2a7e426 	movk	x6, #0x3f21, lsl #16
   8031c:	d503201f 	nop
   80320:	1ac32401 	lsr	w1, w0, w3
   80324:	12000c21 	and	w1, w1, #0xf
   80328:	1100dc25 	add	w5, w1, #0x37
   8032c:	1100c024 	add	w4, w1, #0x30
   80330:	7100283f 	cmp	w1, #0xa
   80334:	1a853084 	csel	w4, w4, w5, cc  // cc = lo, ul, last
   80338:	d503201f 	nop
   8033c:	b9400041 	ldr	w1, [x2]
   80340:	362fffc1 	tbz	w1, #5, 80338 <uart_puthex+0x30>
   80344:	b90000c4 	str	w4, [x6]
   80348:	51001063 	sub	w3, w3, #0x4
   8034c:	3100107f 	cmn	w3, #0x4
   80350:	54fffe81 	b.ne	80320 <uart_puthex+0x18>  // b.any
   80354:	d65f03c0 	ret

0000000000080358 <initFrameBuffer>:
   80358:	a9bb7bfd 	stp	x29, x30, [sp, #-80]!
   8035c:	b0000000 	adrp	x0, 81000 <main+0x290>
   80360:	52801181 	mov	w1, #0x8c                  	// #140
   80364:	52900062 	mov	w2, #0x8003                	// #32771
   80368:	910003fd 	mov	x29, sp
   8036c:	f9000bf3 	str	x19, [sp, #16]
   80370:	912d8013 	add	x19, x0, #0xb60
   80374:	b90b6001 	str	w1, [x0, #2912]
   80378:	72a00082 	movk	w2, #0x4, lsl #16
   8037c:	52800101 	mov	w1, #0x8                   	// #8
   80380:	52808003 	mov	w3, #0x400                 	// #1024
   80384:	b900067f 	str	wzr, [x19, #4]
   80388:	52806000 	mov	w0, #0x300                 	// #768
   8038c:	b9000a62 	str	w2, [x19, #8]
   80390:	52900084 	mov	w4, #0x8004                	// #32772
   80394:	b9000e61 	str	w1, [x19, #12]
   80398:	72a00084 	movk	w4, #0x4, lsl #16
   8039c:	b9001261 	str	w1, [x19, #16]
   803a0:	52900128 	mov	w8, #0x8009                	// #32777
   803a4:	b9001663 	str	w3, [x19, #20]
   803a8:	72a00088 	movk	w8, #0x4, lsl #16
   803ac:	b9001a60 	str	w0, [x19, #24]
   803b0:	529000a7 	mov	w7, #0x8005                	// #32773
   803b4:	b9001e64 	str	w4, [x19, #28]
   803b8:	72a00087 	movk	w7, #0x4, lsl #16
   803bc:	b9002261 	str	w1, [x19, #32]
   803c0:	52800082 	mov	w2, #0x4                   	// #4
   803c4:	b9002661 	str	w1, [x19, #36]
   803c8:	52800406 	mov	w6, #0x20                  	// #32
   803cc:	b9002a63 	str	w3, [x19, #40]
   803d0:	529000c5 	mov	w5, #0x8006                	// #32774
   803d4:	b9002e60 	str	w0, [x19, #44]
   803d8:	72a00085 	movk	w5, #0x4, lsl #16
   803dc:	b9003268 	str	w8, [x19, #48]
   803e0:	52800024 	mov	w4, #0x1                   	// #1
   803e4:	b9003661 	str	w1, [x19, #52]
   803e8:	72a00084 	movk	w4, #0x4, lsl #16
   803ec:	b9003a61 	str	w1, [x19, #56]
   803f0:	52800103 	mov	w3, #0x8                   	// #8
   803f4:	b9003e7f 	str	wzr, [x19, #60]
   803f8:	72a00083 	movk	w3, #0x4, lsl #16
   803fc:	b900427f 	str	wzr, [x19, #64]
   80400:	2a0103e0 	mov	w0, w1
   80404:	b9004667 	str	w7, [x19, #68]
   80408:	b9004a62 	str	w2, [x19, #72]
   8040c:	b9004e62 	str	w2, [x19, #76]
   80410:	b9005266 	str	w6, [x19, #80]
   80414:	b9005665 	str	w5, [x19, #84]
   80418:	b9005a62 	str	w2, [x19, #88]
   8041c:	b9005e62 	str	w2, [x19, #92]
   80420:	b900627f 	str	wzr, [x19, #96]
   80424:	b9006664 	str	w4, [x19, #100]
   80428:	b9006a61 	str	w1, [x19, #104]
   8042c:	b9006e61 	str	w1, [x19, #108]
   80430:	b9007262 	str	w2, [x19, #112]
   80434:	b900767f 	str	wzr, [x19, #116]
   80438:	b9007a63 	str	w3, [x19, #120]
   8043c:	b9007e62 	str	w2, [x19, #124]
   80440:	b9008262 	str	w2, [x19, #128]
   80444:	b900867f 	str	wzr, [x19, #132]
   80448:	b9008a7f 	str	wzr, [x19, #136]
   8044c:	97ffff2d 	bl	80100 <mailbox_query>
   80450:	350000c0 	cbnz	w0, 80468 <initFrameBuffer+0x110>
   80454:	f9400bf3 	ldr	x19, [sp, #16]
   80458:	b0000000 	adrp	x0, 81000 <main+0x290>
   8045c:	a8c57bfd 	ldp	x29, x30, [sp], #80
   80460:	911fc000 	add	x0, x0, #0x7f0
   80464:	17ffff91 	b	802a8 <uart_puts>
   80468:	b9407260 	ldr	w0, [x19, #112]
   8046c:	b0000006 	adrp	x6, 81000 <main+0x290>
   80470:	a901d7b4 	stp	x20, x21, [x29, #24]
   80474:	b0000014 	adrp	x20, 81000 <main+0x290>
   80478:	12007400 	and	w0, w0, #0x3fffffff
   8047c:	b9007260 	str	w0, [x19, #112]
   80480:	a902dfb6 	stp	x22, x23, [x29, #40]
   80484:	b0000015 	adrp	x21, 81000 <main+0x290>
   80488:	b9407260 	ldr	w0, [x19, #112]
   8048c:	b0000017 	adrp	x23, 81000 <main+0x290>
   80490:	b9401667 	ldr	w7, [x19, #20]
   80494:	b0000016 	adrp	x22, 81000 <main+0x290>
   80498:	b9401a65 	ldr	w5, [x19, #24]
   8049c:	b9408664 	ldr	w4, [x19, #132]
   804a0:	2a0003e0 	mov	w0, w0
   804a4:	b9405263 	ldr	w3, [x19, #80]
   804a8:	b9406262 	ldr	w2, [x19, #96]
   804ac:	b9407661 	ldr	w1, [x19, #116]
   804b0:	a903e7b8 	stp	x24, x25, [x29, #56]
   804b4:	b0000019 	adrp	x25, 81000 <main+0x290>
   804b8:	b0000018 	adrp	x24, 81000 <main+0x290>
   804bc:	b90bf687 	str	w7, [x20, #3060]
   804c0:	f90600c0 	str	x0, [x6, #3072]
   804c4:	b0000000 	adrp	x0, 81000 <main+0x290>
   804c8:	b90bfb25 	str	w5, [x25, #3064]
   804cc:	911b4000 	add	x0, x0, #0x6d0
   804d0:	b90c0b04 	str	w4, [x24, #3080]
   804d4:	b90bf2e3 	str	w3, [x23, #3056]
   804d8:	b90c0ec2 	str	w2, [x22, #3084]
   804dc:	b90bfea1 	str	w1, [x21, #3068]
   804e0:	97ffff72 	bl	802a8 <uart_puts>
   804e4:	b0000000 	adrp	x0, 81000 <main+0x290>
   804e8:	911ba000 	add	x0, x0, #0x6e8
   804ec:	97ffff6f 	bl	802a8 <uart_puts>
   804f0:	b94bf680 	ldr	w0, [x20, #3060]
   804f4:	b0000014 	adrp	x20, 81000 <main+0x290>
   804f8:	911c0294 	add	x20, x20, #0x700
   804fc:	97ffff83 	bl	80308 <uart_puthex>
   80500:	aa1403e0 	mov	x0, x20
   80504:	97ffff69 	bl	802a8 <uart_puts>
   80508:	b0000000 	adrp	x0, 81000 <main+0x290>
   8050c:	911c4000 	add	x0, x0, #0x710
   80510:	97ffff66 	bl	802a8 <uart_puts>
   80514:	b94bfb20 	ldr	w0, [x25, #3064]
   80518:	97ffff7c 	bl	80308 <uart_puthex>
   8051c:	aa1403e0 	mov	x0, x20
   80520:	97ffff62 	bl	802a8 <uart_puts>
   80524:	b0000000 	adrp	x0, 81000 <main+0x290>
   80528:	911ca000 	add	x0, x0, #0x728
   8052c:	97ffff5f 	bl	802a8 <uart_puts>
   80530:	b94c0b00 	ldr	w0, [x24, #3080]
   80534:	97ffff75 	bl	80308 <uart_puthex>
   80538:	b0000000 	adrp	x0, 81000 <main+0x290>
   8053c:	911d0000 	add	x0, x0, #0x740
   80540:	97ffff5a 	bl	802a8 <uart_puts>
   80544:	b0000000 	adrp	x0, 81000 <main+0x290>
   80548:	911d4000 	add	x0, x0, #0x750
   8054c:	97ffff57 	bl	802a8 <uart_puts>
   80550:	b94bf2e0 	ldr	w0, [x23, #3056]
   80554:	97ffff6d 	bl	80308 <uart_puthex>
   80558:	b0000000 	adrp	x0, 81000 <main+0x290>
   8055c:	911da000 	add	x0, x0, #0x768
   80560:	97ffff52 	bl	802a8 <uart_puts>
   80564:	b0000000 	adrp	x0, 81000 <main+0x290>
   80568:	911e0000 	add	x0, x0, #0x780
   8056c:	97ffff4f 	bl	802a8 <uart_puts>
   80570:	b94c0ec0 	ldr	w0, [x22, #3084]
   80574:	97ffff65 	bl	80308 <uart_puthex>
   80578:	b0000000 	adrp	x0, 81000 <main+0x290>
   8057c:	911e6000 	add	x0, x0, #0x798
   80580:	97ffff4a 	bl	802a8 <uart_puts>
   80584:	b0000000 	adrp	x0, 81000 <main+0x290>
   80588:	911ec000 	add	x0, x0, #0x7b0
   8058c:	97ffff47 	bl	802a8 <uart_puts>
   80590:	b9407260 	ldr	w0, [x19, #112]
   80594:	97ffff5d 	bl	80308 <uart_puthex>
   80598:	b0000000 	adrp	x0, 81000 <main+0x290>
   8059c:	911f2000 	add	x0, x0, #0x7c8
   805a0:	97ffff42 	bl	802a8 <uart_puts>
   805a4:	b0000000 	adrp	x0, 81000 <main+0x290>
   805a8:	911f4000 	add	x0, x0, #0x7d0
   805ac:	97ffff3f 	bl	802a8 <uart_puts>
   805b0:	b94bfea0 	ldr	w0, [x21, #3068]
   805b4:	97ffff55 	bl	80308 <uart_puthex>
   805b8:	f9400bf3 	ldr	x19, [sp, #16]
   805bc:	a941d7b4 	ldp	x20, x21, [x29, #24]
   805c0:	b0000000 	adrp	x0, 81000 <main+0x290>
   805c4:	a942dfb6 	ldp	x22, x23, [x29, #40]
   805c8:	911fa000 	add	x0, x0, #0x7e8
   805cc:	a943e7b8 	ldp	x24, x25, [x29, #56]
   805d0:	a8c57bfd 	ldp	x29, x30, [sp], #80
   805d4:	17ffff35 	b	802a8 <uart_puts>

00000000000805d8 <drawSquare>:
   805d8:	b0000004 	adrp	x4, 81000 <main+0x290>
   805dc:	0b020008 	add	w8, w0, w2
   805e0:	b0000006 	adrp	x6, 81000 <main+0x290>
   805e4:	0b010045 	add	w5, w2, w1
   805e8:	f9460087 	ldr	x7, [x4, #3072]
   805ec:	912fd0c6 	add	x6, x6, #0xbf4
   805f0:	6b08001f 	cmp	w0, w8
   805f4:	540001ca 	b.ge	8062c <drawSquare+0x54>  // b.tcont
   805f8:	2a0103e2 	mov	w2, w1
   805fc:	6b05003f 	cmp	w1, w5
   80600:	5400010a 	b.ge	80620 <drawSquare+0x48>  // b.tcont
   80604:	d503201f 	nop
   80608:	b94000c4 	ldr	w4, [x6]
   8060c:	1b040804 	madd	w4, w0, w4, w2
   80610:	11000442 	add	w2, w2, #0x1
   80614:	6b0200bf 	cmp	w5, w2
   80618:	b82478e3 	str	w3, [x7, x4, lsl #2]
   8061c:	54ffff61 	b.ne	80608 <drawSquare+0x30>  // b.any
   80620:	11000400 	add	w0, w0, #0x1
   80624:	6b00011f 	cmp	w8, w0
   80628:	54fffe81 	b.ne	805f8 <drawSquare+0x20>  // b.any
   8062c:	d65f03c0 	ret

0000000000080630 <drawCheckerboard>:
   80630:	7100001f 	cmp	w0, #0x0
   80634:	5400076d 	b.le	80720 <drawCheckerboard+0xf0>
   80638:	b0000005 	adrp	x5, 81000 <main+0x290>
   8063c:	b0000006 	adrp	x6, 81000 <main+0x290>
   80640:	531f784d 	lsl	w13, w2, #1
   80644:	912fd0c6 	add	x6, x6, #0xbf4
   80648:	f94600a7 	ldr	x7, [x5, #3072]
   8064c:	5280000c 	mov	w12, #0x0                   	// #0
   80650:	5280000e 	mov	w14, #0x0                   	// #0
   80654:	d503201f 	nop
   80658:	120001cf 	and	w15, w14, #0x1
   8065c:	0b0c004b 	add	w11, w2, w12
   80660:	3600062e 	tbz	w14, #0, 80724 <drawCheckerboard+0xf4>
   80664:	7100003f 	cmp	w1, #0x0
   80668:	5400054d 	b.le	80710 <drawCheckerboard+0xe0>
   8066c:	2a0203f0 	mov	w16, w2
   80670:	5280000f 	mov	w15, #0x0                   	// #0
   80674:	52800011 	mov	w17, #0x0                   	// #0
   80678:	0b0f004a 	add	w10, w2, w15
   8067c:	2a0c03e9 	mov	w9, w12
   80680:	6b0b019f 	cmp	w12, w11
   80684:	540003ca 	b.ge	806fc <drawCheckerboard+0xcc>  // b.tcont
   80688:	2a0f03e5 	mov	w5, w15
   8068c:	6b0a01ff 	cmp	w15, w10
   80690:	5400010a 	b.ge	806b0 <drawCheckerboard+0x80>  // b.tcont
   80694:	d503201f 	nop
   80698:	b94000c8 	ldr	w8, [x6]
   8069c:	1b081528 	madd	w8, w9, w8, w5
   806a0:	110004a5 	add	w5, w5, #0x1
   806a4:	6b0a00bf 	cmp	w5, w10
   806a8:	b82878e4 	str	w4, [x7, x8, lsl #2]
   806ac:	54ffff61 	b.ne	80698 <drawCheckerboard+0x68>  // b.any
   806b0:	11000529 	add	w9, w9, #0x1
   806b4:	6b0b013f 	cmp	w9, w11
   806b8:	54fffe81 	b.ne	80688 <drawCheckerboard+0x58>  // b.any
   806bc:	0b10004a 	add	w10, w2, w16
   806c0:	2a0c03e9 	mov	w9, w12
   806c4:	d503201f 	nop
   806c8:	2a1003e5 	mov	w5, w16
   806cc:	6b0a021f 	cmp	w16, w10
   806d0:	5400010a 	b.ge	806f0 <drawCheckerboard+0xc0>  // b.tcont
   806d4:	d503201f 	nop
   806d8:	b94000c8 	ldr	w8, [x6]
   806dc:	1b081528 	madd	w8, w9, w8, w5
   806e0:	110004a5 	add	w5, w5, #0x1
   806e4:	6b0a00bf 	cmp	w5, w10
   806e8:	b82878e3 	str	w3, [x7, x8, lsl #2]
   806ec:	54ffff61 	b.ne	806d8 <drawCheckerboard+0xa8>  // b.any
   806f0:	11000529 	add	w9, w9, #0x1
   806f4:	6b0b013f 	cmp	w9, w11
   806f8:	54fffe81 	b.ne	806c8 <drawCheckerboard+0x98>  // b.any
   806fc:	11000a31 	add	w17, w17, #0x2
   80700:	0b0d0210 	add	w16, w16, w13
   80704:	0b0d01ef 	add	w15, w15, w13
   80708:	6b11003f 	cmp	w1, w17
   8070c:	54fffb6c 	b.gt	80678 <drawCheckerboard+0x48>
   80710:	110005ce 	add	w14, w14, #0x1
   80714:	2a0b03ec 	mov	w12, w11
   80718:	6b0e001f 	cmp	w0, w14
   8071c:	54fff9e1 	b.ne	80658 <drawCheckerboard+0x28>  // b.any
   80720:	d65f03c0 	ret
   80724:	2a0203f0 	mov	w16, w2
   80728:	52800011 	mov	w17, #0x0                   	// #0
   8072c:	7100003f 	cmp	w1, #0x0
   80730:	54ffff0d 	b.le	80710 <drawCheckerboard+0xe0>
   80734:	d503201f 	nop
   80738:	0b0f004a 	add	w10, w2, w15
   8073c:	2a0c03e9 	mov	w9, w12
   80740:	6b0b019f 	cmp	w12, w11
   80744:	540003ca 	b.ge	807bc <drawCheckerboard+0x18c>  // b.tcont
   80748:	2a0f03e5 	mov	w5, w15
   8074c:	6b0a01ff 	cmp	w15, w10
   80750:	5400010a 	b.ge	80770 <drawCheckerboard+0x140>  // b.tcont
   80754:	d503201f 	nop
   80758:	b94000c8 	ldr	w8, [x6]
   8075c:	1b081528 	madd	w8, w9, w8, w5
   80760:	110004a5 	add	w5, w5, #0x1
   80764:	6b0a00bf 	cmp	w5, w10
   80768:	b82878e3 	str	w3, [x7, x8, lsl #2]
   8076c:	54ffff61 	b.ne	80758 <drawCheckerboard+0x128>  // b.any
   80770:	11000529 	add	w9, w9, #0x1
   80774:	6b0b013f 	cmp	w9, w11
   80778:	54fffe81 	b.ne	80748 <drawCheckerboard+0x118>  // b.any
   8077c:	0b10004a 	add	w10, w2, w16
   80780:	2a0c03e9 	mov	w9, w12
   80784:	d503201f 	nop
   80788:	2a1003e5 	mov	w5, w16
   8078c:	6b0a021f 	cmp	w16, w10
   80790:	5400010a 	b.ge	807b0 <drawCheckerboard+0x180>  // b.tcont
   80794:	d503201f 	nop
   80798:	b94000c8 	ldr	w8, [x6]
   8079c:	1b081528 	madd	w8, w9, w8, w5
   807a0:	110004a5 	add	w5, w5, #0x1
   807a4:	6b0a00bf 	cmp	w5, w10
   807a8:	b82878e4 	str	w4, [x7, x8, lsl #2]
   807ac:	54ffff61 	b.ne	80798 <drawCheckerboard+0x168>  // b.any
   807b0:	11000529 	add	w9, w9, #0x1
   807b4:	6b0b013f 	cmp	w9, w11
   807b8:	54fffe81 	b.ne	80788 <drawCheckerboard+0x158>  // b.any
   807bc:	11000a31 	add	w17, w17, #0x2
   807c0:	0b0d0210 	add	w16, w16, w13
   807c4:	0b0d01ef 	add	w15, w15, w13
   807c8:	6b11003f 	cmp	w1, w17
   807cc:	54fffb6c 	b.gt	80738 <drawCheckerboard+0x108>
   807d0:	110005ce 	add	w14, w14, #0x1
   807d4:	2a0b03ec 	mov	w12, w11
   807d8:	6b0e001f 	cmp	w0, w14
   807dc:	54fff3e1 	b.ne	80658 <drawCheckerboard+0x28>  // b.any
   807e0:	17ffffd0 	b	80720 <drawCheckerboard+0xf0>
   807e4:	d503201f 	nop

00000000000807e8 <displayFrameBuffer>:
   807e8:	b0000001 	adrp	x1, 81000 <main+0x290>
   807ec:	b0000000 	adrp	x0, 81000 <main+0x290>
   807f0:	52901004 	mov	w4, #0x8080                	// #32896
   807f4:	52a01003 	mov	w3, #0x800000              	// #8388608
   807f8:	b94bf421 	ldr	w1, [x1, #3060]
   807fc:	72a01004 	movk	w4, #0x80, lsl #16
   80800:	b94bf800 	ldr	w0, [x0, #3064]
   80804:	52800802 	mov	w2, #0x40                  	// #64
   80808:	53067c21 	lsr	w1, w1, #6
   8080c:	53067c00 	lsr	w0, w0, #6
   80810:	17ffff88 	b	80630 <drawCheckerboard>
   80814:	00000000 	.inst	0x00000000 ; undefined

0000000000080818 <saveMaze>:
   80818:	b0000004 	adrp	x4, 81000 <main+0x290>
   8081c:	b0000003 	adrp	x3, 81000 <main+0x290>
   80820:	91304084 	add	x4, x4, #0xc10
   80824:	91210063 	add	x3, x3, #0x840
   80828:	d2800005 	mov	x5, #0x0                   	// #0
   8082c:	d503201f 	nop
   80830:	910c00a2 	add	x2, x5, #0x300
   80834:	aa0503e0 	mov	x0, x5
   80838:	b8636801 	ldr	w1, [x0, x3]
   8083c:	b8246801 	str	w1, [x0, x4]
   80840:	91010000 	add	x0, x0, #0x40
   80844:	eb02001f 	cmp	x0, x2
   80848:	54ffff81 	b.ne	80838 <saveMaze+0x20>  // b.any
   8084c:	910010a5 	add	x5, x5, #0x4
   80850:	f10100bf 	cmp	x5, #0x40
   80854:	54fffee1 	b.ne	80830 <saveMaze+0x18>  // b.any
   80858:	d65f03c0 	ret
   8085c:	d503201f 	nop

0000000000080860 <refreshSquare>:
   80860:	937c7c04 	sbfiz	x4, x0, #4, #32
   80864:	b0000003 	adrp	x3, 81000 <main+0x290>
   80868:	8b21c084 	add	x4, x4, w1, sxtw
   8086c:	91210063 	add	x3, x3, #0x840
   80870:	b8647863 	ldr	w3, [x3, x4, lsl #2]
   80874:	34000323 	cbz	w3, 808d8 <refreshSquare+0x78>
   80878:	7100047f 	cmp	w3, #0x1
   8087c:	54000400 	b.eq	808fc <refreshSquare+0x9c>  // b.none
   80880:	7100087f 	cmp	w3, #0x2
   80884:	54000320 	b.eq	808e8 <refreshSquare+0x88>  // b.none
   80888:	71000c7f 	cmp	w3, #0x3
   8088c:	54000420 	b.eq	80910 <refreshSquare+0xb0>  // b.none
   80890:	7100107f 	cmp	w3, #0x4
   80894:	54000480 	b.eq	80924 <refreshSquare+0xc4>  // b.none
   80898:	7100147f 	cmp	w3, #0x5
   8089c:	540004e0 	b.eq	80938 <refreshSquare+0xd8>  // b.none
   808a0:	a9be7bfd 	stp	x29, x30, [sp, #-32]!
   808a4:	7100207f 	cmp	w3, #0x8
   808a8:	910003fd 	mov	x29, sp
   808ac:	a90153f3 	stp	x19, x20, [sp, #16]
   808b0:	2a0103f4 	mov	w20, w1
   808b4:	2a0003f3 	mov	w19, w0
   808b8:	540005e0 	b.eq	80974 <refreshSquare+0x114>  // b.none
   808bc:	7100247f 	cmp	w3, #0x9
   808c0:	54000460 	b.eq	8094c <refreshSquare+0xec>  // b.none
   808c4:	7100287f 	cmp	w3, #0xa
   808c8:	54000700 	b.eq	809a8 <refreshSquare+0x148>  // b.none
   808cc:	a94153f3 	ldp	x19, x20, [sp, #16]
   808d0:	a8c27bfd 	ldp	x29, x30, [sp], #32
   808d4:	d65f03c0 	ret
   808d8:	1b027c21 	mul	w1, w1, w2
   808dc:	12bfe003 	mov	w3, #0xffffff              	// #16777215
   808e0:	1b027c00 	mul	w0, w0, w2
   808e4:	17ffff3d 	b	805d8 <drawSquare>
   808e8:	1b027c21 	mul	w1, w1, w2
   808ec:	52969683 	mov	w3, #0xb4b4                	// #46260
   808f0:	1b027c00 	mul	w0, w0, w2
   808f4:	72a01683 	movk	w3, #0xb4, lsl #16
   808f8:	17ffff38 	b	805d8 <drawSquare>
   808fc:	1b027c21 	mul	w1, w1, w2
   80900:	529cdcc3 	mov	w3, #0xe6e6                	// #59110
   80904:	1b027c00 	mul	w0, w0, w2
   80908:	72a01cc3 	movk	w3, #0xe6, lsl #16
   8090c:	17ffff33 	b	805d8 <drawSquare>
   80910:	1b027c21 	mul	w1, w1, w2
   80914:	52905043 	mov	w3, #0x8282                	// #33410
   80918:	1b027c00 	mul	w0, w0, w2
   8091c:	72a01043 	movk	w3, #0x82, lsl #16
   80920:	17ffff2e 	b	805d8 <drawSquare>
   80924:	1b027c21 	mul	w1, w1, w2
   80928:	528a0a03 	mov	w3, #0x5050                	// #20560
   8092c:	1b027c00 	mul	w0, w0, w2
   80930:	72a00a03 	movk	w3, #0x50, lsl #16
   80934:	17ffff29 	b	805d8 <drawSquare>
   80938:	1b027c21 	mul	w1, w1, w2
   8093c:	5280c0c3 	mov	w3, #0x606                 	// #1542
   80940:	1b027c00 	mul	w0, w0, w2
   80944:	72a000c3 	movk	w3, #0x6, lsl #16
   80948:	17ffff24 	b	805d8 <drawSquare>
   8094c:	1b027c21 	mul	w1, w1, w2
   80950:	52981803 	mov	w3, #0xc0c0                	// #49344
   80954:	1b027c00 	mul	w0, w0, w2
   80958:	72a01803 	movk	w3, #0xc0, lsl #16
   8095c:	97ffff1f 	bl	805d8 <drawSquare>
   80960:	b0000001 	adrp	x1, 81000 <main+0x290>
   80964:	b0000000 	adrp	x0, 81000 <main+0x290>
   80968:	b90f2034 	str	w20, [x1, #3872]
   8096c:	b90f2813 	str	w19, [x0, #3880]
   80970:	17ffffd7 	b	808cc <refreshSquare+0x6c>
   80974:	1b027c21 	mul	w1, w1, w2
   80978:	52801003 	mov	w3, #0x80                  	// #128
   8097c:	1b027c00 	mul	w0, w0, w2
   80980:	97ffff16 	bl	805d8 <drawSquare>
   80984:	b0000003 	adrp	x3, 81000 <main+0x290>
   80988:	b0000002 	adrp	x2, 81000 <main+0x290>
   8098c:	b0000001 	adrp	x1, 81000 <main+0x290>
   80990:	b0000000 	adrp	x0, 81000 <main+0x290>
   80994:	b90f1073 	str	w19, [x3, #3856]
   80998:	b90f2454 	str	w20, [x2, #3876]
   8099c:	b90f1433 	str	w19, [x1, #3860]
   809a0:	b90f1c14 	str	w20, [x0, #3868]
   809a4:	17ffffca 	b	808cc <refreshSquare+0x6c>
   809a8:	a94153f3 	ldp	x19, x20, [sp, #16]
   809ac:	1b027c21 	mul	w1, w1, w2
   809b0:	1b027c00 	mul	w0, w0, w2
   809b4:	528f8f83 	mov	w3, #0x7c7c                	// #31868
   809b8:	a8c27bfd 	ldp	x29, x30, [sp], #32
   809bc:	72a01f83 	movk	w3, #0xfc, lsl #16
   809c0:	17ffff06 	b	805d8 <drawSquare>
   809c4:	d503201f 	nop

00000000000809c8 <checkCollision>:
   809c8:	937c7c21 	sbfiz	x1, x1, #4, #32
   809cc:	b0000002 	adrp	x2, 81000 <main+0x290>
   809d0:	8b20c020 	add	x0, x1, w0, sxtw
   809d4:	91210042 	add	x2, x2, #0x840
   809d8:	b8607840 	ldr	w0, [x2, x0, lsl #2]
   809dc:	51000400 	sub	w0, w0, #0x1
   809e0:	7100101f 	cmp	w0, #0x4
   809e4:	1a9f87e0 	cset	w0, ls  // ls = plast
   809e8:	d65f03c0 	ret
   809ec:	d503201f 	nop

00000000000809f0 <reset>:
   809f0:	b0000003 	adrp	x3, 81000 <main+0x290>
   809f4:	b0000001 	adrp	x1, 81000 <main+0x290>
   809f8:	b0000002 	adrp	x2, 81000 <main+0x290>
   809fc:	b0000000 	adrp	x0, 81000 <main+0x290>
   80a00:	b94f1465 	ldr	w5, [x3, #3860]
   80a04:	b0000004 	adrp	x4, 81000 <main+0x290>
   80a08:	b94f1c21 	ldr	w1, [x1, #3868]
   80a0c:	b0000003 	adrp	x3, 81000 <main+0x290>
   80a10:	91210084 	add	x4, x4, #0x840
   80a14:	91304063 	add	x3, x3, #0xc10
   80a18:	b90f1045 	str	w5, [x2, #3856]
   80a1c:	d2800005 	mov	x5, #0x0                   	// #0
   80a20:	b90f2401 	str	w1, [x0, #3876]
   80a24:	d503201f 	nop
   80a28:	910c00a2 	add	x2, x5, #0x300
   80a2c:	aa0503e0 	mov	x0, x5
   80a30:	b8636801 	ldr	w1, [x0, x3]
   80a34:	b8246801 	str	w1, [x0, x4]
   80a38:	91010000 	add	x0, x0, #0x40
   80a3c:	eb02001f 	cmp	x0, x2
   80a40:	54ffff81 	b.ne	80a30 <reset+0x40>  // b.any
   80a44:	910010a5 	add	x5, x5, #0x4
   80a48:	f10100bf 	cmp	x5, #0x40
   80a4c:	54fffee1 	b.ne	80a28 <reset+0x38>  // b.any
   80a50:	d65f03c0 	ret
   80a54:	d503201f 	nop

0000000000080a58 <drawMaze>:
   80a58:	a9bd7bfd 	stp	x29, x30, [sp, #-48]!
   80a5c:	910003fd 	mov	x29, sp
   80a60:	f90013f5 	str	x21, [sp, #32]
   80a64:	2a0003f5 	mov	w21, w0
   80a68:	a90153f3 	stp	x19, x20, [sp, #16]
   80a6c:	52800014 	mov	w20, #0x0                   	// #0
   80a70:	52800013 	mov	w19, #0x0                   	// #0
   80a74:	d503201f 	nop
   80a78:	2a1303e0 	mov	w0, w19
   80a7c:	2a1503e2 	mov	w2, w21
   80a80:	2a1403e1 	mov	w1, w20
   80a84:	11000673 	add	w19, w19, #0x1
   80a88:	97ffff76 	bl	80860 <refreshSquare>
   80a8c:	7100327f 	cmp	w19, #0xc
   80a90:	54ffff41 	b.ne	80a78 <drawMaze+0x20>  // b.any
   80a94:	11000694 	add	w20, w20, #0x1
   80a98:	7100429f 	cmp	w20, #0x10
   80a9c:	54fffea1 	b.ne	80a70 <drawMaze+0x18>  // b.any
   80aa0:	a94153f3 	ldp	x19, x20, [sp, #16]
   80aa4:	f94013f5 	ldr	x21, [sp, #32]
   80aa8:	a8c37bfd 	ldp	x29, x30, [sp], #48
   80aac:	d65f03c0 	ret

0000000000080ab0 <drawPlayer>:
   80ab0:	b0000004 	adrp	x4, 81000 <main+0x290>
   80ab4:	b0000002 	adrp	x2, 81000 <main+0x290>
   80ab8:	2a0103e3 	mov	w3, w1
   80abc:	b94f2481 	ldr	w1, [x4, #3876]
   80ac0:	b94f1044 	ldr	w4, [x2, #3856]
   80ac4:	2a0003e2 	mov	w2, w0
   80ac8:	1b017c01 	mul	w1, w0, w1
   80acc:	1b047c00 	mul	w0, w0, w4
   80ad0:	17fffec2 	b	805d8 <drawSquare>
   80ad4:	d503201f 	nop

0000000000080ad8 <wallTypeCheck>:
   80ad8:	937c7c00 	sbfiz	x0, x0, #4, #32
   80adc:	b0000002 	adrp	x2, 81000 <main+0x290>
   80ae0:	8b21c000 	add	x0, x0, w1, sxtw
   80ae4:	91210042 	add	x2, x2, #0x840
   80ae8:	b8607840 	ldr	w0, [x2, x0, lsl #2]
   80aec:	d65f03c0 	ret

0000000000080af0 <changeMazeValue>:
   80af0:	937c7c00 	sbfiz	x0, x0, #4, #32
   80af4:	b0000003 	adrp	x3, 81000 <main+0x290>
   80af8:	8b21c000 	add	x0, x0, w1, sxtw
   80afc:	91210063 	add	x3, x3, #0x840
   80b00:	b8207862 	str	w2, [x3, x0, lsl #2]
   80b04:	d65f03c0 	ret

0000000000080b08 <get_SNES>:
   80b08:	a9bb7bfd 	stp	x29, x30, [sp, #-80]!
   80b0c:	d2800381 	mov	x1, #0x1c                  	// #28
   80b10:	f2a7e401 	movk	x1, #0x3f20, lsl #16
   80b14:	52800180 	mov	w0, #0xc                   	// #12
   80b18:	910003fd 	mov	x29, sp
   80b1c:	a90153f3 	stp	x19, x20, [sp, #16]
   80b20:	52800014 	mov	w20, #0x0                   	// #0
   80b24:	a9025bf5 	stp	x21, x22, [sp, #32]
   80b28:	d2800696 	mov	x22, #0x34                  	// #52
   80b2c:	a90363f7 	stp	x23, x24, [sp, #48]
   80b30:	aa0103f8 	mov	x24, x1
   80b34:	f90023f9 	str	x25, [sp, #64]
   80b38:	52804019 	mov	w25, #0x200                 	// #512
   80b3c:	b9000039 	str	w25, [x1]
   80b40:	52800013 	mov	w19, #0x0                   	// #0
   80b44:	52810015 	mov	w21, #0x800                 	// #2048
   80b48:	f2a7e416 	movk	x22, #0x3f20, lsl #16
   80b4c:	97fffd4d 	bl	80080 <microsecond_delay>
   80b50:	d2800500 	mov	x0, #0x28                  	// #40
   80b54:	f2a7e400 	movk	x0, #0x3f20, lsl #16
   80b58:	aa0003f7 	mov	x23, x0
   80b5c:	b9000019 	str	w25, [x0]
   80b60:	528000c0 	mov	w0, #0x6                   	// #6
   80b64:	97fffd47 	bl	80080 <microsecond_delay>
   80b68:	b90002f5 	str	w21, [x23]
   80b6c:	52800021 	mov	w1, #0x1                   	// #1
   80b70:	1ad32021 	lsl	w1, w1, w19
   80b74:	2a140021 	orr	w1, w1, w20
   80b78:	b94002c2 	ldr	w2, [x22]
   80b7c:	12003c21 	and	w1, w1, #0xffff
   80b80:	528000c0 	mov	w0, #0x6                   	// #6
   80b84:	11000673 	add	w19, w19, #0x1
   80b88:	f276005f 	tst	x2, #0x400
   80b8c:	1a940034 	csel	w20, w1, w20, eq  // eq = none
   80b90:	97fffd3c 	bl	80080 <microsecond_delay>
   80b94:	b9000315 	str	w21, [x24]
   80b98:	7100427f 	cmp	w19, #0x10
   80b9c:	54fffe21 	b.ne	80b60 <get_SNES+0x58>  // b.any
   80ba0:	2a1403e0 	mov	w0, w20
   80ba4:	f94023f9 	ldr	x25, [sp, #64]
   80ba8:	a94153f3 	ldp	x19, x20, [sp, #16]
   80bac:	a9425bf5 	ldp	x21, x22, [sp, #32]
   80bb0:	a94363f7 	ldp	x23, x24, [sp, #48]
   80bb4:	a8c57bfd 	ldp	x29, x30, [sp], #80
   80bb8:	d65f03c0 	ret
   80bbc:	d503201f 	nop

0000000000080bc0 <init_GPIO9_to_output>:
   80bc0:	d2a7e402 	mov	x2, #0x3f200000            	// #1059061760
   80bc4:	d2801283 	mov	x3, #0x94                  	// #148
   80bc8:	f2a7e403 	movk	x3, #0x3f20, lsl #16
   80bcc:	528012c0 	mov	w0, #0x96                  	// #150
   80bd0:	b9400041 	ldr	w1, [x2]
   80bd4:	12027021 	and	w1, w1, #0xc7ffffff
   80bd8:	32050021 	orr	w1, w1, #0x8000000
   80bdc:	b9000041 	str	w1, [x2]
   80be0:	b900007f 	str	wzr, [x3]
   80be4:	d503201f 	nop
   80be8:	d503201f 	nop
   80bec:	71000400 	subs	w0, w0, #0x1
   80bf0:	54ffffc1 	b.ne	80be8 <init_GPIO9_to_output+0x28>  // b.any
   80bf4:	d2801301 	mov	x1, #0x98                  	// #152
   80bf8:	52804002 	mov	w2, #0x200                 	// #512
   80bfc:	f2a7e401 	movk	x1, #0x3f20, lsl #16
   80c00:	528012c0 	mov	w0, #0x96                  	// #150
   80c04:	b9000022 	str	w2, [x1]
   80c08:	d503201f 	nop
   80c0c:	71000400 	subs	w0, w0, #0x1
   80c10:	54ffffc1 	b.ne	80c08 <init_GPIO9_to_output+0x48>  // b.any
   80c14:	d2801300 	mov	x0, #0x98                  	// #152
   80c18:	f2a7e400 	movk	x0, #0x3f20, lsl #16
   80c1c:	b900001f 	str	wzr, [x0]
   80c20:	d65f03c0 	ret
   80c24:	d503201f 	nop

0000000000080c28 <set_GPIO9>:
   80c28:	d2800380 	mov	x0, #0x1c                  	// #28
   80c2c:	52804001 	mov	w1, #0x200                 	// #512
   80c30:	f2a7e400 	movk	x0, #0x3f20, lsl #16
   80c34:	b9000001 	str	w1, [x0]
   80c38:	d65f03c0 	ret
   80c3c:	d503201f 	nop

0000000000080c40 <clear_GPIO9>:
   80c40:	d2800500 	mov	x0, #0x28                  	// #40
   80c44:	52804001 	mov	w1, #0x200                 	// #512
   80c48:	f2a7e400 	movk	x0, #0x3f20, lsl #16
   80c4c:	b9000001 	str	w1, [x0]
   80c50:	d65f03c0 	ret
   80c54:	d503201f 	nop

0000000000080c58 <init_GPIO11_to_output>:
   80c58:	d2800082 	mov	x2, #0x4                   	// #4
   80c5c:	d2801283 	mov	x3, #0x94                  	// #148
   80c60:	f2a7e402 	movk	x2, #0x3f20, lsl #16
   80c64:	f2a7e403 	movk	x3, #0x3f20, lsl #16
   80c68:	528012c0 	mov	w0, #0x96                  	// #150
   80c6c:	b9400041 	ldr	w1, [x2]
   80c70:	121a7021 	and	w1, w1, #0xffffffc7
   80c74:	321d0021 	orr	w1, w1, #0x8
   80c78:	b9000041 	str	w1, [x2]
   80c7c:	b900007f 	str	wzr, [x3]
   80c80:	d503201f 	nop
   80c84:	71000400 	subs	w0, w0, #0x1
   80c88:	54ffffc1 	b.ne	80c80 <init_GPIO11_to_output+0x28>  // b.any
   80c8c:	d2801301 	mov	x1, #0x98                  	// #152
   80c90:	52810002 	mov	w2, #0x800                 	// #2048
   80c94:	f2a7e401 	movk	x1, #0x3f20, lsl #16
   80c98:	528012c0 	mov	w0, #0x96                  	// #150
   80c9c:	b9000022 	str	w2, [x1]
   80ca0:	d503201f 	nop
   80ca4:	71000400 	subs	w0, w0, #0x1
   80ca8:	54ffffc1 	b.ne	80ca0 <init_GPIO11_to_output+0x48>  // b.any
   80cac:	d2801300 	mov	x0, #0x98                  	// #152
   80cb0:	f2a7e400 	movk	x0, #0x3f20, lsl #16
   80cb4:	b900001f 	str	wzr, [x0]
   80cb8:	d65f03c0 	ret
   80cbc:	d503201f 	nop

0000000000080cc0 <set_GPIO11>:
   80cc0:	d2800380 	mov	x0, #0x1c                  	// #28
   80cc4:	52810001 	mov	w1, #0x800                 	// #2048
   80cc8:	f2a7e400 	movk	x0, #0x3f20, lsl #16
   80ccc:	b9000001 	str	w1, [x0]
   80cd0:	d65f03c0 	ret
   80cd4:	d503201f 	nop

0000000000080cd8 <clear_GPIO11>:
   80cd8:	d2800500 	mov	x0, #0x28                  	// #40
   80cdc:	52810001 	mov	w1, #0x800                 	// #2048
   80ce0:	f2a7e400 	movk	x0, #0x3f20, lsl #16
   80ce4:	b9000001 	str	w1, [x0]
   80ce8:	d65f03c0 	ret
   80cec:	d503201f 	nop

0000000000080cf0 <init_GPIO10_to_input>:
   80cf0:	d2800082 	mov	x2, #0x4                   	// #4
   80cf4:	d2801283 	mov	x3, #0x94                  	// #148
   80cf8:	f2a7e402 	movk	x2, #0x3f20, lsl #16
   80cfc:	f2a7e403 	movk	x3, #0x3f20, lsl #16
   80d00:	528012c0 	mov	w0, #0x96                  	// #150
   80d04:	b9400041 	ldr	w1, [x2]
   80d08:	121d7021 	and	w1, w1, #0xfffffff8
   80d0c:	b9000041 	str	w1, [x2]
   80d10:	b900007f 	str	wzr, [x3]
   80d14:	d503201f 	nop
   80d18:	d503201f 	nop
   80d1c:	71000400 	subs	w0, w0, #0x1
   80d20:	54ffffc1 	b.ne	80d18 <init_GPIO10_to_input+0x28>  // b.any
   80d24:	d2801301 	mov	x1, #0x98                  	// #152
   80d28:	52808002 	mov	w2, #0x400                 	// #1024
   80d2c:	f2a7e401 	movk	x1, #0x3f20, lsl #16
   80d30:	528012c0 	mov	w0, #0x96                  	// #150
   80d34:	b9000022 	str	w2, [x1]
   80d38:	d503201f 	nop
   80d3c:	71000400 	subs	w0, w0, #0x1
   80d40:	54ffffc1 	b.ne	80d38 <init_GPIO10_to_input+0x48>  // b.any
   80d44:	d2801300 	mov	x0, #0x98                  	// #152
   80d48:	f2a7e400 	movk	x0, #0x3f20, lsl #16
   80d4c:	b900001f 	str	wzr, [x0]
   80d50:	d65f03c0 	ret
   80d54:	d503201f 	nop

0000000000080d58 <get_GPIO10>:
   80d58:	d2800680 	mov	x0, #0x34                  	// #52
   80d5c:	f2a7e400 	movk	x0, #0x3f20, lsl #16
   80d60:	b9400000 	ldr	w0, [x0]
   80d64:	d34a2800 	ubfx	x0, x0, #10, #1
   80d68:	d65f03c0 	ret
   80d6c:	00000000 	.inst	0x00000000 ; undefined

0000000000080d70 <main>:
   80d70:	a9ba7bfd 	stp	x29, x30, [sp, #-96]!
   80d74:	910003fd 	mov	x29, sp
   80d78:	a90153f3 	stp	x19, x20, [sp, #16]
   80d7c:	a9025bf5 	stp	x21, x22, [sp, #32]
   80d80:	a90363f7 	stp	x23, x24, [sp, #48]
   80d84:	a9046bf9 	stp	x25, x26, [sp, #64]
   80d88:	a90573fb 	stp	x27, x28, [sp, #80]
   80d8c:	97fffcf9 	bl	80170 <uart_init>
   80d90:	d2a7e402 	mov	x2, #0x3f200000            	// #1059061760
   80d94:	d2801283 	mov	x3, #0x94                  	// #148
   80d98:	f2a7e403 	movk	x3, #0x3f20, lsl #16
   80d9c:	528012c1 	mov	w1, #0x96                  	// #150
   80da0:	b9400040 	ldr	w0, [x2]
   80da4:	12027000 	and	w0, w0, #0xc7ffffff
   80da8:	32050000 	orr	w0, w0, #0x8000000
   80dac:	b9000040 	str	w0, [x2]
   80db0:	b900007f 	str	wzr, [x3]
   80db4:	d503201f 	nop
   80db8:	71000421 	subs	w1, w1, #0x1
   80dbc:	54ffffc1 	b.ne	80db4 <main+0x44>  // b.any
   80dc0:	d2801301 	mov	x1, #0x98                  	// #152
   80dc4:	52804002 	mov	w2, #0x200                 	// #512
   80dc8:	f2a7e401 	movk	x1, #0x3f20, lsl #16
   80dcc:	528012c0 	mov	w0, #0x96                  	// #150
   80dd0:	b9000022 	str	w2, [x1]
   80dd4:	d503201f 	nop
   80dd8:	71000400 	subs	w0, w0, #0x1
   80ddc:	54ffffc1 	b.ne	80dd4 <main+0x64>  // b.any
   80de0:	d2801300 	mov	x0, #0x98                  	// #152
   80de4:	d2800082 	mov	x2, #0x4                   	// #4
   80de8:	f2a7e400 	movk	x0, #0x3f20, lsl #16
   80dec:	f2a7e402 	movk	x2, #0x3f20, lsl #16
   80df0:	d2801283 	mov	x3, #0x94                  	// #148
   80df4:	528012c1 	mov	w1, #0x96                  	// #150
   80df8:	b900001f 	str	wzr, [x0]
   80dfc:	f2a7e403 	movk	x3, #0x3f20, lsl #16
   80e00:	b9400040 	ldr	w0, [x2]
   80e04:	121a7000 	and	w0, w0, #0xffffffc7
   80e08:	321d0000 	orr	w0, w0, #0x8
   80e0c:	b9000040 	str	w0, [x2]
   80e10:	b900007f 	str	wzr, [x3]
   80e14:	d503201f 	nop
   80e18:	71000421 	subs	w1, w1, #0x1
   80e1c:	54ffffc1 	b.ne	80e14 <main+0xa4>  // b.any
   80e20:	d2801301 	mov	x1, #0x98                  	// #152
   80e24:	52810002 	mov	w2, #0x800                 	// #2048
   80e28:	f2a7e401 	movk	x1, #0x3f20, lsl #16
   80e2c:	528012c0 	mov	w0, #0x96                  	// #150
   80e30:	b9000022 	str	w2, [x1]
   80e34:	d503201f 	nop
   80e38:	71000400 	subs	w0, w0, #0x1
   80e3c:	54ffffc1 	b.ne	80e34 <main+0xc4>  // b.any
   80e40:	d2801300 	mov	x0, #0x98                  	// #152
   80e44:	d2800082 	mov	x2, #0x4                   	// #4
   80e48:	f2a7e400 	movk	x0, #0x3f20, lsl #16
   80e4c:	f2a7e402 	movk	x2, #0x3f20, lsl #16
   80e50:	d2801283 	mov	x3, #0x94                  	// #148
   80e54:	528012c1 	mov	w1, #0x96                  	// #150
   80e58:	b900001f 	str	wzr, [x0]
   80e5c:	f2a7e403 	movk	x3, #0x3f20, lsl #16
   80e60:	b9400040 	ldr	w0, [x2]
   80e64:	121d7000 	and	w0, w0, #0xfffffff8
   80e68:	b9000040 	str	w0, [x2]
   80e6c:	b900007f 	str	wzr, [x3]
   80e70:	d503201f 	nop
   80e74:	71000421 	subs	w1, w1, #0x1
   80e78:	54ffffc1 	b.ne	80e70 <main+0x100>  // b.any
   80e7c:	d2801301 	mov	x1, #0x98                  	// #152
   80e80:	52808002 	mov	w2, #0x400                 	// #1024
   80e84:	f2a7e401 	movk	x1, #0x3f20, lsl #16
   80e88:	528012c0 	mov	w0, #0x96                  	// #150
   80e8c:	b9000022 	str	w2, [x1]
   80e90:	d503201f 	nop
   80e94:	71000400 	subs	w0, w0, #0x1
   80e98:	54ffffc1 	b.ne	80e90 <main+0x120>  // b.any
   80e9c:	d2801300 	mov	x0, #0x98                  	// #152
   80ea0:	d2800502 	mov	x2, #0x28                  	// #40
   80ea4:	f2a7e400 	movk	x0, #0x3f20, lsl #16
   80ea8:	f2a7e402 	movk	x2, #0x3f20, lsl #16
   80eac:	d2800381 	mov	x1, #0x1c                  	// #28
   80eb0:	52804003 	mov	w3, #0x200                 	// #512
   80eb4:	f2a7e401 	movk	x1, #0x3f20, lsl #16
   80eb8:	b900001f 	str	wzr, [x0]
   80ebc:	b9000043 	str	w3, [x2]
   80ec0:	b0000000 	adrp	x0, 81000 <main+0x290>
   80ec4:	91204000 	add	x0, x0, #0x810
   80ec8:	52810002 	mov	w2, #0x800                 	// #2048
   80ecc:	b9000022 	str	w2, [x1]
   80ed0:	b0000018 	adrp	x24, 81000 <main+0x290>
   80ed4:	b0000017 	adrp	x23, 81000 <main+0x290>
   80ed8:	d2800013 	mov	x19, #0x0                   	// #0
   80edc:	97fffcf3 	bl	802a8 <uart_puts>
   80ee0:	97fffd1e 	bl	80358 <initFrameBuffer>
   80ee4:	b0000001 	adrp	x1, 81000 <main+0x290>
   80ee8:	91304022 	add	x2, x1, #0xc10
   80eec:	912102e1 	add	x1, x23, #0x840
   80ef0:	52801000 	mov	w0, #0x80                  	// #128
   80ef4:	b90f1b00 	str	w0, [x24, #3864]
   80ef8:	910c0263 	add	x3, x19, #0x300
   80efc:	aa1303e0 	mov	x0, x19
   80f00:	b8616804 	ldr	w4, [x0, x1]
   80f04:	b8226804 	str	w4, [x0, x2]
   80f08:	91010000 	add	x0, x0, #0x40
   80f0c:	eb03001f 	cmp	x0, x3
   80f10:	54ffff81 	b.ne	80f00 <main+0x190>  // b.any
   80f14:	91001273 	add	x19, x19, #0x4
   80f18:	f101027f 	cmp	x19, #0x40
   80f1c:	54fffee1 	b.ne	80ef8 <main+0x188>  // b.any
   80f20:	2a1303e0 	mov	w0, w19
   80f24:	b0000014 	adrp	x20, 81000 <main+0x290>
   80f28:	97fffecc 	bl	80a58 <drawMaze>
   80f2c:	b0000015 	adrp	x21, 81000 <main+0x290>
   80f30:	b94f1b03 	ldr	w3, [x24, #3864]
   80f34:	b0000016 	adrp	x22, 81000 <main+0x290>
   80f38:	b94f2681 	ldr	w1, [x20, #3876]
   80f3c:	912d42d6 	add	x22, x22, #0xb50
   80f40:	b94f12a0 	ldr	w0, [x21, #3856]
   80f44:	913c9294 	add	x20, x20, #0xf24
   80f48:	913c42b5 	add	x21, x21, #0xf10
   80f4c:	2a1303e2 	mov	w2, w19
   80f50:	b0000019 	adrp	x25, 81000 <main+0x290>
   80f54:	529ffff3 	mov	w19, #0xffff                	// #65535
   80f58:	b000001c 	adrp	x28, 81000 <main+0x290>
   80f5c:	b000001b 	adrp	x27, 81000 <main+0x290>
   80f60:	531a6421 	lsl	w1, w1, #6
   80f64:	531a6400 	lsl	w0, w0, #6
   80f68:	97fffd9c 	bl	805d8 <drawSquare>
   80f6c:	d503201f 	nop
   80f70:	97fffee6 	bl	80b08 <get_SNES>
   80f74:	12003c1a 	and	w26, w0, #0xffff
   80f78:	6b1a027f 	cmp	w19, w26
   80f7c:	54ffffa0 	b.eq	80f70 <main+0x200>  // b.none
   80f80:	37180fba 	tbnz	w26, #3, 81174 <main+0x404>
   80f84:	b94002c0 	ldr	w0, [x22]
   80f88:	7100041f 	cmp	w0, #0x1
   80f8c:	54ffff21 	b.ne	80f70 <main+0x200>  // b.any
   80f90:	b9400281 	ldr	w1, [x20]
   80f94:	3730143a 	tbnz	w26, #6, 81218 <main+0x4a8>
   80f98:	3638045a 	tbz	w26, #7, 81020 <main+0x2b0>
   80f9c:	7100383f 	cmp	w1, #0xe
   80fa0:	5400040c 	b.gt	81020 <main+0x2b0>
   80fa4:	b94002a0 	ldr	w0, [x21]
   80fa8:	11000426 	add	w6, w1, #0x1
   80fac:	912102e4 	add	x4, x23, #0x840
   80fb0:	937c7c02 	sbfiz	x2, x0, #4, #32
   80fb4:	8b26c048 	add	x8, x2, w6, sxtw
   80fb8:	b8687883 	ldr	w3, [x4, x8, lsl #2]
   80fbc:	51000467 	sub	w7, w3, #0x1
   80fc0:	710010ff 	cmp	w7, #0x4
   80fc4:	540002e9 	b.ls	81020 <main+0x2b0>  // b.plast
   80fc8:	340034a3 	cbz	w3, 8165c <main+0x8ec>
   80fcc:	7100287f 	cmp	w3, #0xa
   80fd0:	54000101 	b.ne	80ff0 <main+0x280>  // b.any
   80fd4:	8b21c043 	add	x3, x2, w1, sxtw
   80fd8:	2a0603e1 	mov	w1, w6
   80fdc:	52800802 	mov	w2, #0x40                  	// #64
   80fe0:	b823789f 	str	wzr, [x4, x3, lsl #2]
   80fe4:	97fffe1f 	bl	80860 <refreshSquare>
   80fe8:	b9400281 	ldr	w1, [x20]
   80fec:	b94002a0 	ldr	w0, [x21]
   80ff0:	52800802 	mov	w2, #0x40                  	// #64
   80ff4:	97fffe1b 	bl	80860 <refreshSquare>
   80ff8:	b9400281 	ldr	w1, [x20]
   80ffc:	52800802 	mov	w2, #0x40                  	// #64
   81000:	b94f1b03 	ldr	w3, [x24, #3864]
   81004:	b94002a0 	ldr	w0, [x21]
   81008:	11000421 	add	w1, w1, #0x1
   8100c:	b9000281 	str	w1, [x20]
   81010:	531a6421 	lsl	w1, w1, #6
   81014:	531a6400 	lsl	w0, w0, #6
   81018:	97fffd70 	bl	805d8 <drawSquare>
   8101c:	b9400281 	ldr	w1, [x20]
   81020:	3620039a 	tbz	w26, #4, 81090 <main+0x320>
   81024:	b94002a3 	ldr	w3, [x21]
   81028:	7100007f 	cmp	w3, #0x0
   8102c:	5400032d 	b.le	81090 <main+0x320>
   81030:	51000460 	sub	w0, w3, #0x1
   81034:	93407c22 	sxtw	x2, w1
   81038:	912102e4 	add	x4, x23, #0x840
   8103c:	8b20d047 	add	x7, x2, w0, sxtw #4
   81040:	b8677886 	ldr	w6, [x4, x7, lsl #2]
   81044:	510004c8 	sub	w8, w6, #0x1
   81048:	7100111f 	cmp	w8, #0x4
   8104c:	54000229 	b.ls	81090 <main+0x320>  // b.plast
   81050:	34002566 	cbz	w6, 814fc <main+0x78c>
   81054:	710028df 	cmp	w6, #0xa
   81058:	54002ae0 	b.eq	815b4 <main+0x844>  // b.none
   8105c:	2a0303e0 	mov	w0, w3
   81060:	52800802 	mov	w2, #0x40                  	// #64
   81064:	97fffdff 	bl	80860 <refreshSquare>
   81068:	b94002a0 	ldr	w0, [x21]
   8106c:	52800802 	mov	w2, #0x40                  	// #64
   81070:	b94f1b03 	ldr	w3, [x24, #3864]
   81074:	b9400281 	ldr	w1, [x20]
   81078:	51000400 	sub	w0, w0, #0x1
   8107c:	b90002a0 	str	w0, [x21]
   81080:	531a6400 	lsl	w0, w0, #6
   81084:	531a6421 	lsl	w1, w1, #6
   81088:	97fffd54 	bl	805d8 <drawSquare>
   8108c:	b9400281 	ldr	w1, [x20]
   81090:	3628045a 	tbz	w26, #5, 81118 <main+0x3a8>
   81094:	b94002a3 	ldr	w3, [x21]
   81098:	7100287f 	cmp	w3, #0xa
   8109c:	540003ec 	b.gt	81118 <main+0x3a8>
   810a0:	11000460 	add	w0, w3, #0x1
   810a4:	93407c22 	sxtw	x2, w1
   810a8:	912102e4 	add	x4, x23, #0x840
   810ac:	8b20d047 	add	x7, x2, w0, sxtw #4
   810b0:	b8677886 	ldr	w6, [x4, x7, lsl #2]
   810b4:	510004c8 	sub	w8, w6, #0x1
   810b8:	7100111f 	cmp	w8, #0x4
   810bc:	540002e9 	b.ls	81118 <main+0x3a8>  // b.plast
   810c0:	34002bc6 	cbz	w6, 81638 <main+0x8c8>
   810c4:	710028df 	cmp	w6, #0xa
   810c8:	540000e1 	b.ne	810e4 <main+0x374>  // b.any
   810cc:	8b23d043 	add	x3, x2, w3, sxtw #4
   810d0:	52800802 	mov	w2, #0x40                  	// #64
   810d4:	b823789f 	str	wzr, [x4, x3, lsl #2]
   810d8:	97fffde2 	bl	80860 <refreshSquare>
   810dc:	b9400281 	ldr	w1, [x20]
   810e0:	b94002a3 	ldr	w3, [x21]
   810e4:	2a0303e0 	mov	w0, w3
   810e8:	52800802 	mov	w2, #0x40                  	// #64
   810ec:	97fffddd 	bl	80860 <refreshSquare>
   810f0:	b94002a0 	ldr	w0, [x21]
   810f4:	52800802 	mov	w2, #0x40                  	// #64
   810f8:	b94f1b03 	ldr	w3, [x24, #3864]
   810fc:	b9400281 	ldr	w1, [x20]
   81100:	11000400 	add	w0, w0, #0x1
   81104:	b90002a0 	str	w0, [x21]
   81108:	531a6400 	lsl	w0, w0, #6
   8110c:	531a6421 	lsl	w1, w1, #6
   81110:	97fffd32 	bl	805d8 <drawSquare>
   81114:	b9400281 	ldr	w1, [x20]
   81118:	52804800 	mov	w0, #0x240                 	// #576
   8111c:	0a000340 	and	w0, w26, w0
   81120:	7109001f 	cmp	w0, #0x240
   81124:	54000b00 	b.eq	81284 <main+0x514>  // b.none
   81128:	52805000 	mov	w0, #0x280                 	// #640
   8112c:	0a000340 	and	w0, w26, w0
   81130:	710a001f 	cmp	w0, #0x280
   81134:	54000e80 	b.eq	81304 <main+0x594>  // b.none
   81138:	52804200 	mov	w0, #0x210                 	// #528
   8113c:	0a000340 	and	w0, w26, w0
   81140:	7108401f 	cmp	w0, #0x210
   81144:	54001200 	b.eq	81384 <main+0x614>  // b.none
   81148:	52804400 	mov	w0, #0x220                 	// #544
   8114c:	0a000340 	and	w0, w26, w0
   81150:	7108801f 	cmp	w0, #0x220
   81154:	54001560 	b.eq	81400 <main+0x690>  // b.none
   81158:	b94f2320 	ldr	w0, [x25, #3872]
   8115c:	6b01001f 	cmp	w0, w1
   81160:	540018c0 	b.eq	81478 <main+0x708>  // b.none
   81164:	52882360 	mov	w0, #0x411b                	// #16667
   81168:	2a1a03f3 	mov	w19, w26
   8116c:	97fffbc5 	bl	80080 <microsecond_delay>
   81170:	17ffff80 	b	80f70 <main+0x200>
   81174:	b9400281 	ldr	w1, [x20]
   81178:	52800802 	mov	w2, #0x40                  	// #64
   8117c:	b94002a0 	ldr	w0, [x21]
   81180:	d2800013 	mov	x19, #0x0                   	// #0
   81184:	97fffdb7 	bl	80860 <refreshSquare>
   81188:	90000000 	adrp	x0, 81000 <main+0x290>
   8118c:	b94f2321 	ldr	w1, [x25, #3872]
   81190:	52800802 	mov	w2, #0x40                  	// #64
   81194:	b94f2800 	ldr	w0, [x0, #3880]
   81198:	97fffdb2 	bl	80860 <refreshSquare>
   8119c:	b94f1f60 	ldr	w0, [x27, #3868]
   811a0:	912102e4 	add	x4, x23, #0x840
   811a4:	b94f1781 	ldr	w1, [x28, #3860]
   811a8:	b9000280 	str	w0, [x20]
   811ac:	90000000 	adrp	x0, 81000 <main+0x290>
   811b0:	91304003 	add	x3, x0, #0xc10
   811b4:	b90002a1 	str	w1, [x21]
   811b8:	910c0262 	add	x2, x19, #0x300
   811bc:	aa1303e0 	mov	x0, x19
   811c0:	b8636801 	ldr	w1, [x0, x3]
   811c4:	b8246801 	str	w1, [x0, x4]
   811c8:	91010000 	add	x0, x0, #0x40
   811cc:	eb02001f 	cmp	x0, x2
   811d0:	54ffff81 	b.ne	811c0 <main+0x450>  // b.any
   811d4:	91001273 	add	x19, x19, #0x4
   811d8:	f101027f 	cmp	x19, #0x40
   811dc:	54fffee1 	b.ne	811b8 <main+0x448>  // b.any
   811e0:	2a1303e0 	mov	w0, w19
   811e4:	97fffe1d 	bl	80a58 <drawMaze>
   811e8:	b9400281 	ldr	w1, [x20]
   811ec:	52a01fe3 	mov	w3, #0xff0000              	// #16711680
   811f0:	b94002a0 	ldr	w0, [x21]
   811f4:	2a1303e2 	mov	w2, w19
   811f8:	b90f1b03 	str	w3, [x24, #3864]
   811fc:	531a6421 	lsl	w1, w1, #6
   81200:	531a6400 	lsl	w0, w0, #6
   81204:	97fffcf5 	bl	805d8 <drawSquare>
   81208:	52800020 	mov	w0, #0x1                   	// #1
   8120c:	b90002c0 	str	w0, [x22]
   81210:	b9400281 	ldr	w1, [x20]
   81214:	3637ec3a 	tbz	w26, #6, 80f98 <main+0x228>
   81218:	7100003f 	cmp	w1, #0x0
   8121c:	54ffebed 	b.le	80f98 <main+0x228>
   81220:	b94002a0 	ldr	w0, [x21]
   81224:	51000426 	sub	w6, w1, #0x1
   81228:	912102e4 	add	x4, x23, #0x840
   8122c:	937c7c02 	sbfiz	x2, x0, #4, #32
   81230:	8b26c048 	add	x8, x2, w6, sxtw
   81234:	b8687883 	ldr	w3, [x4, x8, lsl #2]
   81238:	51000467 	sub	w7, w3, #0x1
   8123c:	710010ff 	cmp	w7, #0x4
   81240:	54ffeac9 	b.ls	80f98 <main+0x228>  // b.plast
   81244:	34001483 	cbz	w3, 814d4 <main+0x764>
   81248:	7100287f 	cmp	w3, #0xa
   8124c:	54001c20 	b.eq	815d0 <main+0x860>  // b.none
   81250:	52800802 	mov	w2, #0x40                  	// #64
   81254:	97fffd83 	bl	80860 <refreshSquare>
   81258:	b9400281 	ldr	w1, [x20]
   8125c:	52800802 	mov	w2, #0x40                  	// #64
   81260:	b94f1b03 	ldr	w3, [x24, #3864]
   81264:	b94002a0 	ldr	w0, [x21]
   81268:	51000421 	sub	w1, w1, #0x1
   8126c:	b9000281 	str	w1, [x20]
   81270:	531a6421 	lsl	w1, w1, #6
   81274:	531a6400 	lsl	w0, w0, #6
   81278:	97fffcd8 	bl	805d8 <drawSquare>
   8127c:	b9400281 	ldr	w1, [x20]
   81280:	17ffff46 	b	80f98 <main+0x228>
   81284:	7100003f 	cmp	w1, #0x0
   81288:	54fff50d 	b.le	81128 <main+0x3b8>
   8128c:	b94002a0 	ldr	w0, [x21]
   81290:	51000421 	sub	w1, w1, #0x1
   81294:	52800802 	mov	w2, #0x40                  	// #64
   81298:	97fffd72 	bl	80860 <refreshSquare>
   8129c:	b9400281 	ldr	w1, [x20]
   812a0:	912102e6 	add	x6, x23, #0x840
   812a4:	b94002a0 	ldr	w0, [x21]
   812a8:	51000424 	sub	w4, w1, #0x1
   812ac:	937c7c03 	sbfiz	x3, x0, #4, #32
   812b0:	8b24c063 	add	x3, x3, w4, sxtw
   812b4:	b86378c2 	ldr	w2, [x6, x3, lsl #2]
   812b8:	7100145f 	cmp	w2, #0x5
   812bc:	54001480 	b.eq	8154c <main+0x7dc>  // b.none
   812c0:	7100105f 	cmp	w2, #0x4
   812c4:	54001400 	b.eq	81544 <main+0x7d4>  // b.none
   812c8:	71000c5f 	cmp	w2, #0x3
   812cc:	54001380 	b.eq	8153c <main+0x7cc>  // b.none
   812d0:	7100085f 	cmp	w2, #0x2
   812d4:	54001260 	b.eq	81520 <main+0x7b0>  // b.none
   812d8:	7100045f 	cmp	w2, #0x1
   812dc:	54fff261 	b.ne	81128 <main+0x3b8>  // b.any
   812e0:	2a0403e1 	mov	w1, w4
   812e4:	b82378df 	str	wzr, [x6, x3, lsl #2]
   812e8:	52800802 	mov	w2, #0x40                  	// #64
   812ec:	97fffd5d 	bl	80860 <refreshSquare>
   812f0:	52805000 	mov	w0, #0x280                 	// #640
   812f4:	0a000340 	and	w0, w26, w0
   812f8:	b9400281 	ldr	w1, [x20]
   812fc:	710a001f 	cmp	w0, #0x280
   81300:	54fff1c1 	b.ne	81138 <main+0x3c8>  // b.any
   81304:	7100383f 	cmp	w1, #0xe
   81308:	54fff18c 	b.gt	81138 <main+0x3c8>
   8130c:	b94002a0 	ldr	w0, [x21]
   81310:	11000421 	add	w1, w1, #0x1
   81314:	52800802 	mov	w2, #0x40                  	// #64
   81318:	97fffd52 	bl	80860 <refreshSquare>
   8131c:	b9400281 	ldr	w1, [x20]
   81320:	912102e6 	add	x6, x23, #0x840
   81324:	b94002a0 	ldr	w0, [x21]
   81328:	11000424 	add	w4, w1, #0x1
   8132c:	937c7c03 	sbfiz	x3, x0, #4, #32
   81330:	8b24c063 	add	x3, x3, w4, sxtw
   81334:	b86378c2 	ldr	w2, [x6, x3, lsl #2]
   81338:	7100145f 	cmp	w2, #0x5
   8133c:	54001b60 	b.eq	816a8 <main+0x938>  // b.none
   81340:	7100105f 	cmp	w2, #0x4
   81344:	54001ae0 	b.eq	816a0 <main+0x930>  // b.none
   81348:	71000c5f 	cmp	w2, #0x3
   8134c:	540019c0 	b.eq	81684 <main+0x914>  // b.none
   81350:	7100085f 	cmp	w2, #0x2
   81354:	54001ba0 	b.eq	816c8 <main+0x958>  // b.none
   81358:	7100045f 	cmp	w2, #0x1
   8135c:	54ffeee1 	b.ne	81138 <main+0x3c8>  // b.any
   81360:	2a0403e1 	mov	w1, w4
   81364:	b82378df 	str	wzr, [x6, x3, lsl #2]
   81368:	52800802 	mov	w2, #0x40                  	// #64
   8136c:	97fffd3d 	bl	80860 <refreshSquare>
   81370:	52804200 	mov	w0, #0x210                 	// #528
   81374:	0a000340 	and	w0, w26, w0
   81378:	b9400281 	ldr	w1, [x20]
   8137c:	7108401f 	cmp	w0, #0x210
   81380:	54ffee41 	b.ne	81148 <main+0x3d8>  // b.any
   81384:	b94002a0 	ldr	w0, [x21]
   81388:	7100001f 	cmp	w0, #0x0
   8138c:	54ffeded 	b.le	81148 <main+0x3d8>
   81390:	52800802 	mov	w2, #0x40                  	// #64
   81394:	51000400 	sub	w0, w0, #0x1
   81398:	97fffd32 	bl	80860 <refreshSquare>
   8139c:	b94002a0 	ldr	w0, [x21]
   813a0:	912102e4 	add	x4, x23, #0x840
   813a4:	b9400281 	ldr	w1, [x20]
   813a8:	51000400 	sub	w0, w0, #0x1
   813ac:	937c7c03 	sbfiz	x3, x0, #4, #32
   813b0:	8b21c063 	add	x3, x3, w1, sxtw
   813b4:	b8637882 	ldr	w2, [x4, x3, lsl #2]
   813b8:	7100145f 	cmp	w2, #0x5
   813bc:	54000f00 	b.eq	8159c <main+0x82c>  // b.none
   813c0:	7100105f 	cmp	w2, #0x4
   813c4:	54000e00 	b.eq	81584 <main+0x814>  // b.none
   813c8:	71000c5f 	cmp	w2, #0x3
   813cc:	54000d00 	b.eq	8156c <main+0x7fc>  // b.none
   813d0:	7100085f 	cmp	w2, #0x2
   813d4:	54000c00 	b.eq	81554 <main+0x7e4>  // b.none
   813d8:	7100045f 	cmp	w2, #0x1
   813dc:	54ffeb61 	b.ne	81148 <main+0x3d8>  // b.any
   813e0:	b823789f 	str	wzr, [x4, x3, lsl #2]
   813e4:	52800802 	mov	w2, #0x40                  	// #64
   813e8:	97fffd1e 	bl	80860 <refreshSquare>
   813ec:	52804400 	mov	w0, #0x220                 	// #544
   813f0:	0a000340 	and	w0, w26, w0
   813f4:	b9400281 	ldr	w1, [x20]
   813f8:	7108801f 	cmp	w0, #0x220
   813fc:	54ffeae1 	b.ne	81158 <main+0x3e8>  // b.any
   81400:	b94002a0 	ldr	w0, [x21]
   81404:	7100281f 	cmp	w0, #0xa
   81408:	54ffea8c 	b.gt	81158 <main+0x3e8>
   8140c:	52800802 	mov	w2, #0x40                  	// #64
   81410:	11000400 	add	w0, w0, #0x1
   81414:	97fffd13 	bl	80860 <refreshSquare>
   81418:	b94002a0 	ldr	w0, [x21]
   8141c:	912102e4 	add	x4, x23, #0x840
   81420:	b9400281 	ldr	w1, [x20]
   81424:	11000400 	add	w0, w0, #0x1
   81428:	937c7c03 	sbfiz	x3, x0, #4, #32
   8142c:	8b21c063 	add	x3, x3, w1, sxtw
   81430:	b8637882 	ldr	w2, [x4, x3, lsl #2]
   81434:	7100145f 	cmp	w2, #0x5
   81438:	54000f40 	b.eq	81620 <main+0x8b0>  // b.none
   8143c:	7100105f 	cmp	w2, #0x4
   81440:	54000e40 	b.eq	81608 <main+0x898>  // b.none
   81444:	71000c5f 	cmp	w2, #0x3
   81448:	54000d40 	b.eq	815f0 <main+0x880>  // b.none
   8144c:	7100085f 	cmp	w2, #0x2
   81450:	54001300 	b.eq	816b0 <main+0x940>  // b.none
   81454:	7100045f 	cmp	w2, #0x1
   81458:	54ffe801 	b.ne	81158 <main+0x3e8>  // b.any
   8145c:	b823789f 	str	wzr, [x4, x3, lsl #2]
   81460:	52800802 	mov	w2, #0x40                  	// #64
   81464:	97fffcff 	bl	80860 <refreshSquare>
   81468:	b9400281 	ldr	w1, [x20]
   8146c:	b94f2320 	ldr	w0, [x25, #3872]
   81470:	6b01001f 	cmp	w0, w1
   81474:	54ffe781 	b.ne	81164 <main+0x3f4>  // b.any
   81478:	90000000 	adrp	x0, 81000 <main+0x290>
   8147c:	b94f2801 	ldr	w1, [x0, #3880]
   81480:	b94002a0 	ldr	w0, [x21]
   81484:	6b00003f 	cmp	w1, w0
   81488:	54ffe6e1 	b.ne	81164 <main+0x3f4>  // b.any
   8148c:	90000000 	adrp	x0, 81000 <main+0x290>
   81490:	9120e000 	add	x0, x0, #0x838
   81494:	97fffb85 	bl	802a8 <uart_puts>
   81498:	b9400281 	ldr	w1, [x20]
   8149c:	52800802 	mov	w2, #0x40                  	// #64
   814a0:	b94002a0 	ldr	w0, [x21]
   814a4:	97fffcef 	bl	80860 <refreshSquare>
   814a8:	b9400281 	ldr	w1, [x20]
   814ac:	52900003 	mov	w3, #0x8000                	// #32768
   814b0:	b94002a0 	ldr	w0, [x21]
   814b4:	52800802 	mov	w2, #0x40                  	// #64
   814b8:	531a6421 	lsl	w1, w1, #6
   814bc:	531a6400 	lsl	w0, w0, #6
   814c0:	97fffc46 	bl	805d8 <drawSquare>
   814c4:	52800c60 	mov	w0, #0x63                  	// #99
   814c8:	b9000280 	str	w0, [x20]
   814cc:	b90002a0 	str	w0, [x21]
   814d0:	17ffff25 	b	81164 <main+0x3f4>
   814d4:	8b21c043 	add	x3, x2, w1, sxtw
   814d8:	52800147 	mov	w7, #0xa                   	// #10
   814dc:	b8287887 	str	w7, [x4, x8, lsl #2]
   814e0:	2a0603e1 	mov	w1, w6
   814e4:	52800802 	mov	w2, #0x40                  	// #64
   814e8:	b8237887 	str	w7, [x4, x3, lsl #2]
   814ec:	97fffcdd 	bl	80860 <refreshSquare>
   814f0:	b9400281 	ldr	w1, [x20]
   814f4:	b94002a0 	ldr	w0, [x21]
   814f8:	17ffff56 	b	81250 <main+0x4e0>
   814fc:	8b23d043 	add	x3, x2, w3, sxtw #4
   81500:	52800146 	mov	w6, #0xa                   	// #10
   81504:	b8277886 	str	w6, [x4, x7, lsl #2]
   81508:	52800802 	mov	w2, #0x40                  	// #64
   8150c:	b8237886 	str	w6, [x4, x3, lsl #2]
   81510:	97fffcd4 	bl	80860 <refreshSquare>
   81514:	b9400281 	ldr	w1, [x20]
   81518:	b94002a3 	ldr	w3, [x21]
   8151c:	17fffed0 	b	8105c <main+0x2ec>
   81520:	52800021 	mov	w1, #0x1                   	// #1
   81524:	b82378c1 	str	w1, [x6, x3, lsl #2]
   81528:	52800802 	mov	w2, #0x40                  	// #64
   8152c:	2a0403e1 	mov	w1, w4
   81530:	97fffccc 	bl	80860 <refreshSquare>
   81534:	b9400281 	ldr	w1, [x20]
   81538:	17fffefc 	b	81128 <main+0x3b8>
   8153c:	52800041 	mov	w1, #0x2                   	// #2
   81540:	17fffff9 	b	81524 <main+0x7b4>
   81544:	52800061 	mov	w1, #0x3                   	// #3
   81548:	17fffff7 	b	81524 <main+0x7b4>
   8154c:	52800081 	mov	w1, #0x4                   	// #4
   81550:	17fffff5 	b	81524 <main+0x7b4>
   81554:	52800026 	mov	w6, #0x1                   	// #1
   81558:	52800802 	mov	w2, #0x40                  	// #64
   8155c:	b8237886 	str	w6, [x4, x3, lsl #2]
   81560:	97fffcc0 	bl	80860 <refreshSquare>
   81564:	b9400281 	ldr	w1, [x20]
   81568:	17fffef8 	b	81148 <main+0x3d8>
   8156c:	52800046 	mov	w6, #0x2                   	// #2
   81570:	52800802 	mov	w2, #0x40                  	// #64
   81574:	b8237886 	str	w6, [x4, x3, lsl #2]
   81578:	97fffcba 	bl	80860 <refreshSquare>
   8157c:	b9400281 	ldr	w1, [x20]
   81580:	17fffef2 	b	81148 <main+0x3d8>
   81584:	52800066 	mov	w6, #0x3                   	// #3
   81588:	52800802 	mov	w2, #0x40                  	// #64
   8158c:	b8237886 	str	w6, [x4, x3, lsl #2]
   81590:	97fffcb4 	bl	80860 <refreshSquare>
   81594:	b9400281 	ldr	w1, [x20]
   81598:	17fffeec 	b	81148 <main+0x3d8>
   8159c:	52800086 	mov	w6, #0x4                   	// #4
   815a0:	52800802 	mov	w2, #0x40                  	// #64
   815a4:	b8237886 	str	w6, [x4, x3, lsl #2]
   815a8:	97fffcae 	bl	80860 <refreshSquare>
   815ac:	b9400281 	ldr	w1, [x20]
   815b0:	17fffee6 	b	81148 <main+0x3d8>
   815b4:	8b23d043 	add	x3, x2, w3, sxtw #4
   815b8:	52800802 	mov	w2, #0x40                  	// #64
   815bc:	b823789f 	str	wzr, [x4, x3, lsl #2]
   815c0:	97fffca8 	bl	80860 <refreshSquare>
   815c4:	b9400281 	ldr	w1, [x20]
   815c8:	b94002a3 	ldr	w3, [x21]
   815cc:	17fffea4 	b	8105c <main+0x2ec>
   815d0:	8b21c043 	add	x3, x2, w1, sxtw
   815d4:	2a0603e1 	mov	w1, w6
   815d8:	52800802 	mov	w2, #0x40                  	// #64
   815dc:	b823789f 	str	wzr, [x4, x3, lsl #2]
   815e0:	97fffca0 	bl	80860 <refreshSquare>
   815e4:	b9400281 	ldr	w1, [x20]
   815e8:	b94002a0 	ldr	w0, [x21]
   815ec:	17ffff19 	b	81250 <main+0x4e0>
   815f0:	52800046 	mov	w6, #0x2                   	// #2
   815f4:	52800802 	mov	w2, #0x40                  	// #64
   815f8:	b8237886 	str	w6, [x4, x3, lsl #2]
   815fc:	97fffc99 	bl	80860 <refreshSquare>
   81600:	b9400281 	ldr	w1, [x20]
   81604:	17fffed5 	b	81158 <main+0x3e8>
   81608:	52800066 	mov	w6, #0x3                   	// #3
   8160c:	52800802 	mov	w2, #0x40                  	// #64
   81610:	b8237886 	str	w6, [x4, x3, lsl #2]
   81614:	97fffc93 	bl	80860 <refreshSquare>
   81618:	b9400281 	ldr	w1, [x20]
   8161c:	17fffecf 	b	81158 <main+0x3e8>
   81620:	52800086 	mov	w6, #0x4                   	// #4
   81624:	52800802 	mov	w2, #0x40                  	// #64
   81628:	b8237886 	str	w6, [x4, x3, lsl #2]
   8162c:	97fffc8d 	bl	80860 <refreshSquare>
   81630:	b9400281 	ldr	w1, [x20]
   81634:	17fffec9 	b	81158 <main+0x3e8>
   81638:	8b23d043 	add	x3, x2, w3, sxtw #4
   8163c:	52800146 	mov	w6, #0xa                   	// #10
   81640:	b8277886 	str	w6, [x4, x7, lsl #2]
   81644:	52800802 	mov	w2, #0x40                  	// #64
   81648:	b8237886 	str	w6, [x4, x3, lsl #2]
   8164c:	97fffc85 	bl	80860 <refreshSquare>
   81650:	b9400281 	ldr	w1, [x20]
   81654:	b94002a3 	ldr	w3, [x21]
   81658:	17fffea3 	b	810e4 <main+0x374>
   8165c:	8b21c043 	add	x3, x2, w1, sxtw
   81660:	52800147 	mov	w7, #0xa                   	// #10
   81664:	b8287887 	str	w7, [x4, x8, lsl #2]
   81668:	2a0603e1 	mov	w1, w6
   8166c:	52800802 	mov	w2, #0x40                  	// #64
   81670:	b8237887 	str	w7, [x4, x3, lsl #2]
   81674:	97fffc7b 	bl	80860 <refreshSquare>
   81678:	b9400281 	ldr	w1, [x20]
   8167c:	b94002a0 	ldr	w0, [x21]
   81680:	17fffe5c 	b	80ff0 <main+0x280>
   81684:	52800041 	mov	w1, #0x2                   	// #2
   81688:	b82378c1 	str	w1, [x6, x3, lsl #2]
   8168c:	52800802 	mov	w2, #0x40                  	// #64
   81690:	2a0403e1 	mov	w1, w4
   81694:	97fffc73 	bl	80860 <refreshSquare>
   81698:	b9400281 	ldr	w1, [x20]
   8169c:	17fffea7 	b	81138 <main+0x3c8>
   816a0:	52800061 	mov	w1, #0x3                   	// #3
   816a4:	17fffff9 	b	81688 <main+0x918>
   816a8:	52800081 	mov	w1, #0x4                   	// #4
   816ac:	17fffff7 	b	81688 <main+0x918>
   816b0:	52800026 	mov	w6, #0x1                   	// #1
   816b4:	52800802 	mov	w2, #0x40                  	// #64
   816b8:	b8237886 	str	w6, [x4, x3, lsl #2]
   816bc:	97fffc69 	bl	80860 <refreshSquare>
   816c0:	b9400281 	ldr	w1, [x20]
   816c4:	17fffea5 	b	81158 <main+0x3e8>
   816c8:	52800021 	mov	w1, #0x1                   	// #1
   816cc:	17ffffef 	b	81688 <main+0x918>
